

Microchip MPLAB XC8 Assembler V2.32 build 20210201212658 
                                                                                               Tue Jun 28 12:30:42 2022

Microchip MPLAB XC8 C Compiler v2.32 (Free license) build 20210201212658 Og1 
     1                           	processor	16F877A
     2                           	pagewidth 120
     3                           	opt	flic
     4                           	psect	strings,global,class=STRING,delta=2,noexec
     5                           	psect	cinit,global,class=CODE,merge=1,delta=2
     6                           	psect	bssCOMMON,global,class=COMMON,space=1,delta=1,noexec
     7                           	psect	bssBANK0,global,class=BANK0,space=1,delta=1,noexec
     8                           	psect	bssBANK1,global,class=BANK1,space=1,delta=1,noexec
     9                           	psect	clrtext,global,class=CODE,delta=2
    10                           	psect	cstackBANK1,global,class=BANK1,space=1,delta=1,noexec
    11                           	psect	cstackCOMMON,global,class=COMMON,space=1,delta=1,noexec
    12                           	psect	cstackBANK0,global,class=BANK0,space=1,delta=1,noexec
    13                           	psect	maintext,global,class=CODE,split=1,delta=2
    14                           	psect	text1,local,class=CODE,merge=1,delta=2
    15                           	psect	text2,local,class=CODE,merge=1,delta=2
    16                           	psect	text3,local,class=CODE,merge=1,delta=2
    17                           	psect	text4,local,class=CODE,merge=1,delta=2
    18                           	psect	text5,local,class=CODE,merge=1,delta=2,group=1
    19                           	psect	text6,local,class=CODE,merge=1,delta=2,group=1
    20                           	psect	text7,local,class=CODE,merge=1,delta=2,group=1
    21                           	psect	text8,local,class=CODE,merge=1,delta=2,group=1
    22                           	psect	text9,local,class=CODE,merge=1,delta=2,group=1
    23                           	psect	text10,local,class=CODE,merge=1,delta=2,group=1
    24                           	psect	text11,local,class=CODE,merge=1,delta=2,group=1
    25                           	psect	text12,local,class=CODE,merge=1,delta=2,group=1
    26                           	psect	text13,local,class=CODE,merge=1,delta=2
    27                           	psect	text14,local,class=CODE,merge=1,delta=2
    28                           	psect	text15,local,class=CODE,merge=1,delta=2
    29                           	psect	text16,local,class=CODE,merge=1,delta=2
    30                           	psect	text17,local,class=CODE,merge=1,delta=2
    31                           	psect	intentry,global,class=CODE,delta=2
    32                           	psect	config,global,abs,ovrld,class=CONFIG,space=4,delta=2,noexec
    33                           	dabs	1,0x7E,2
    34  0000                     
    35                           ; Version 2.20
    36                           ; Generated 12/02/2020 GMT
    37                           ; 
    38                           ; Copyright © 2020, Microchip Technology Inc. and its subsidiaries ("Microchip")
    39                           ; All rights reserved.
    40                           ; 
    41                           ; This software is developed by Microchip Technology Inc. and its subsidiaries ("Microch
      +                          ip").
    42                           ; 
    43                           ; Redistribution and use in source and binary forms, with or without modification, are
    44                           ; permitted provided that the following conditions are met:
    45                           ; 
    46                           ;     1. Redistributions of source code must retain the above copyright notice, this lis
      +                          t of
    47                           ;        conditions and the following disclaimer.
    48                           ; 
    49                           ;     2. Redistributions in binary form must reproduce the above copyright notice, this 
      +                          list
    50                           ;        of conditions and the following disclaimer in the documentation and/or other
    51                           ;        materials provided with the distribution.
    52                           ; 
    53                           ;     3. Microchip's name may not be used to endorse or promote products derived from th
      +                          is
    54                           ;        software without specific prior written permission.
    55                           ; 
    56                           ; THIS SOFTWARE IS PROVIDED BY MICROCHIP "AS IS" AND ANY EXPRESS OR IMPLIED WARRANTIES,
    57                           ; INCLUDING, BUT NOT LIMITED TO, THE IMPLIED WARRANTIES OF MERCHANTABILITY AND FITNESS F
      +                          OR
    58                           ; PURPOSE ARE DISCLAIMED.  IN NO EVENT SHALL MICROCHIP BE LIABLE FOR ANY DIRECT, INDIREC
      +                          T,
    59                           ; INCIDENTAL, SPECIAL, EXEMPLARY, OR CONSEQUENTIAL DAMAGES (INCLUDING BUT NOT LIMITED TO
    60                           ; PROCUREMENT OF SUBSTITUTE GOODS OR SERVICES; LOSS OF USE, DATA OR PROFITS; OR BUSINESS
    61                           ; INTERRUPTION) HOWSOEVER CAUSED AND ON ANY THEORY OF LIABILITY, WHETHER IN CONTRACT, ST
      +                          RICT
    62                           ; LIABILITY, OR TORT (INCLUDING NEGLIGENCE OR OTHERWISE) ARISING IN ANY WAY OUT OF THE U
      +                          SE OF
    63                           ; THIS SOFTWARE, EVEN IF ADVISED OF THE POSSIBILITY OF SUCH DAMAGE.
    64                           ; 
    65                           ; 
    66                           ; Code-generator required, PIC16F877A Definitions
    67                           ; 
    68                           ; SFR Addresses
    69  0000                     	;# 
    70  0001                     	;# 
    71  0002                     	;# 
    72  0003                     	;# 
    73  0004                     	;# 
    74  0005                     	;# 
    75  0006                     	;# 
    76  0007                     	;# 
    77  0008                     	;# 
    78  0009                     	;# 
    79  000A                     	;# 
    80  000B                     	;# 
    81  000C                     	;# 
    82  000D                     	;# 
    83  000E                     	;# 
    84  000E                     	;# 
    85  000F                     	;# 
    86  0010                     	;# 
    87  0011                     	;# 
    88  0012                     	;# 
    89  0013                     	;# 
    90  0014                     	;# 
    91  0015                     	;# 
    92  0015                     	;# 
    93  0016                     	;# 
    94  0017                     	;# 
    95  0018                     	;# 
    96  0019                     	;# 
    97  001A                     	;# 
    98  001B                     	;# 
    99  001B                     	;# 
   100  001C                     	;# 
   101  001D                     	;# 
   102  001E                     	;# 
   103  001F                     	;# 
   104  0081                     	;# 
   105  0085                     	;# 
   106  0086                     	;# 
   107  0087                     	;# 
   108  0088                     	;# 
   109  0089                     	;# 
   110  008C                     	;# 
   111  008D                     	;# 
   112  008E                     	;# 
   113  0091                     	;# 
   114  0092                     	;# 
   115  0093                     	;# 
   116  0094                     	;# 
   117  0098                     	;# 
   118  0099                     	;# 
   119  009C                     	;# 
   120  009D                     	;# 
   121  009E                     	;# 
   122  009F                     	;# 
   123  010C                     	;# 
   124  010D                     	;# 
   125  010E                     	;# 
   126  010F                     	;# 
   127  018C                     	;# 
   128  018D                     	;# 
   129  0000                     	;# 
   130  0001                     	;# 
   131  0002                     	;# 
   132  0003                     	;# 
   133  0004                     	;# 
   134  0005                     	;# 
   135  0006                     	;# 
   136  0007                     	;# 
   137  0008                     	;# 
   138  0009                     	;# 
   139  000A                     	;# 
   140  000B                     	;# 
   141  000C                     	;# 
   142  000D                     	;# 
   143  000E                     	;# 
   144  000E                     	;# 
   145  000F                     	;# 
   146  0010                     	;# 
   147  0011                     	;# 
   148  0012                     	;# 
   149  0013                     	;# 
   150  0014                     	;# 
   151  0015                     	;# 
   152  0015                     	;# 
   153  0016                     	;# 
   154  0017                     	;# 
   155  0018                     	;# 
   156  0019                     	;# 
   157  001A                     	;# 
   158  001B                     	;# 
   159  001B                     	;# 
   160  001C                     	;# 
   161  001D                     	;# 
   162  001E                     	;# 
   163  001F                     	;# 
   164  0081                     	;# 
   165  0085                     	;# 
   166  0086                     	;# 
   167  0087                     	;# 
   168  0088                     	;# 
   169  0089                     	;# 
   170  008C                     	;# 
   171  008D                     	;# 
   172  008E                     	;# 
   173  0091                     	;# 
   174  0092                     	;# 
   175  0093                     	;# 
   176  0094                     	;# 
   177  0098                     	;# 
   178  0099                     	;# 
   179  009C                     	;# 
   180  009D                     	;# 
   181  009E                     	;# 
   182  009F                     	;# 
   183  010C                     	;# 
   184  010D                     	;# 
   185  010E                     	;# 
   186  010F                     	;# 
   187  018C                     	;# 
   188  018D                     	;# 
   189  0010                     _T1CON	set	16
   190  000E                     _TMR1L	set	14
   191  000F                     _TMR1H	set	15
   192  0008                     _PORTD	set	8
   193  0001                     _TMR0	set	1
   194  0080                     _TMR1ON	set	128
   195  0032                     _RB2	set	50
   196  0031                     _RB1	set	49
   197  005E                     _PEIE	set	94
   198  005F                     _GIE	set	95
   199  005D                     _TMR0IE	set	93
   200  0038                     _RC0	set	56
   201  0039                     _RC1	set	57
   202  003C                     _RC4	set	60
   203  005A                     _TMR0IF	set	90
   204  0088                     _TRISD	set	136
   205  0081                     _OPTION_REG	set	129
   206  0432                     _TRISB2	set	1074
   207  0431                     _TRISB1	set	1073
   208  0439                     _TRISC1	set	1081
   209  0438                     _TRISC0	set	1080
   210  043C                     _TRISC4	set	1084
   211                           
   212                           	psect	strings
   213  1000                     __pstrings:
   214  1000                     stringtab:
   215  1000                     __stringtab:
   216  1000                     stringcode:	
   217                           ;	String table - string pointers are 1 byte each
   218                           
   219  1000                     stringdir:
   220  1000  3010               	movlw	high stringdir
   221  1001  008A               	movwf	10
   222  1002  0804               	movf	4,w
   223  1003  0A84               	incf	4,f
   224  1004  0782               	addwf	2,f
   225  1005                     __stringbase:
   226  1005  3400               	retlw	0
   227  1006                     __end_of__stringtab:
   228  1006                     STR_1:
   229  1006  3420               	retlw	32	;' '
   230  1007  344F               	retlw	79	;'O'
   231  1008  3462               	retlw	98	;'b'
   232  1009  346A               	retlw	106	;'j'
   233  100A  3465               	retlw	101	;'e'
   234  100B  3463               	retlw	99	;'c'
   235  100C  3474               	retlw	116	;'t'
   236  100D  3420               	retlw	32	;' '
   237  100E  3444               	retlw	68	;'D'
   238  100F  3465               	retlw	101	;'e'
   239  1010  3474               	retlw	116	;'t'
   240  1011  3465               	retlw	101	;'e'
   241  1012  3463               	retlw	99	;'c'
   242  1013  3474               	retlw	116	;'t'
   243  1014  3465               	retlw	101	;'e'
   244  1015  3464               	retlw	100	;'d'
   245  1016  3420               	retlw	32	;' '
   246  1017  3400               	retlw	0
   247  1018                     STR_5:
   248  1018  3455               	retlw	85	;'U'
   249  1019  346C               	retlw	108	;'l'
   250  101A  3474               	retlw	116	;'t'
   251  101B  3472               	retlw	114	;'r'
   252  101C  3461               	retlw	97	;'a'
   253  101D  3473               	retlw	115	;'s'
   254  101E  346F               	retlw	111	;'o'
   255  101F  346E               	retlw	110	;'n'
   256  1020  3469               	retlw	105	;'i'
   257  1021  3463               	retlw	99	;'c'
   258  1022  3420               	retlw	32	;' '
   259  1023  3473               	retlw	115	;'s'
   260  1024  3465               	retlw	101	;'e'
   261  1025  346E               	retlw	110	;'n'
   262  1026  3473               	retlw	115	;'s'
   263  1027  346F               	retlw	111	;'o'
   264  1028  3472               	retlw	114	;'r'
   265  1029  3400               	retlw	0
   266  102A                     STR_6:
   267  102A  3477               	retlw	119	;'w'
   268  102B  3469               	retlw	105	;'i'
   269  102C  3474               	retlw	116	;'t'
   270  102D  3468               	retlw	104	;'h'
   271  102E  3420               	retlw	32	;' '
   272  102F  3450               	retlw	80	;'P'
   273  1030  3449               	retlw	73	;'I'
   274  1031  3443               	retlw	67	;'C'
   275  1032  3431               	retlw	49	;'1'
   276  1033  3436               	retlw	54	;'6'
   277  1034  3446               	retlw	70	;'F'
   278  1035  3438               	retlw	56	;'8'
   279  1036  3437               	retlw	55	;'7'
   280  1037  3437               	retlw	55	;'7'
   281  1038  3441               	retlw	65	;'A'
   282  1039  3400               	retlw	0
   283  103A                     STR_7:
   284  103A  3453               	retlw	83	;'S'
   285  103B  3445               	retlw	69	;'E'
   286  103C  3441               	retlw	65	;'A'
   287  103D  3452               	retlw	82	;'R'
   288  103E  3443               	retlw	67	;'C'
   289  103F  3448               	retlw	72	;'H'
   290  1040  3449               	retlw	73	;'I'
   291  1041  344E               	retlw	78	;'N'
   292  1042  3447               	retlw	71	;'G'
   293  1043  342E               	retlw	46	;'.'
   294  1044  342E               	retlw	46	;'.'
   295  1045  342E               	retlw	46	;'.'
   296  1046  3400               	retlw	0
   297  1047                     STR_4:
   298  1047  3420               	retlw	32	;' '
   299  1048  344E               	retlw	78	;'N'
   300  1049  346F               	retlw	111	;'o'
   301  104A  3420               	retlw	32	;' '
   302  104B  344F               	retlw	79	;'O'
   303  104C  3462               	retlw	98	;'b'
   304  104D  346A               	retlw	106	;'j'
   305  104E  3465               	retlw	101	;'e'
   306  104F  3463               	retlw	99	;'c'
   307  1050  3474               	retlw	116	;'t'
   308  1051  3420               	retlw	32	;' '
   309  1052  3400               	retlw	0
   310  1053                     STR_2:
   311  1053  3464               	retlw	100	;'d'
   312  1054  3469               	retlw	105	;'i'
   313  1055  3473               	retlw	115	;'s'
   314  1056  3474               	retlw	116	;'t'
   315  1057  3461               	retlw	97	;'a'
   316  1058  346E               	retlw	110	;'n'
   317  1059  3463               	retlw	99	;'c'
   318  105A  3465               	retlw	101	;'e'
   319  105B  343A               	retlw	58	;':'
   320  105C  3400               	retlw	0
   321  105D                     STR_3:
   322  105D  3441               	retlw	65	;'A'
   323  105E  344E               	retlw	78	;'N'
   324  105F  3447               	retlw	71	;'G'
   325  1060  344C               	retlw	76	;'L'
   326  1061  3445               	retlw	69	;'E'
   327  1062  343A               	retlw	58	;':'
   328  1063  3420               	retlw	32	;' '
   329  1064  3400               	retlw	0
   330                           
   331                           	psect	cinit
   332  0013                     start_initialization:	
   333                           ; #config settings
   334                           
   335  0013                     __initialization:
   336                           
   337                           ; Clear objects allocated to COMMON
   338  0013  01F6               	clrf	__pbssCOMMON& (0+127)
   339  0014  01F7               	clrf	(__pbssCOMMON+1)& (0+127)
   340  0015  01F8               	clrf	(__pbssCOMMON+2)& (0+127)
   341  0016  01F9               	clrf	(__pbssCOMMON+3)& (0+127)
   342                           
   343                           ; Clear objects allocated to BANK0
   344  0017  1283               	bcf	3,5	;RP0=0, select bank0
   345  0018  1303               	bcf	3,6	;RP1=0, select bank0
   346  0019  01EF               	clrf	__pbssBANK0& (0+127)
   347                           
   348                           ; Clear objects allocated to BANK1
   349  001A  1383               	bcf	3,7	;select IRP bank0
   350  001B  30A0               	movlw	low __pbssBANK1
   351  001C  0084               	movwf	4
   352  001D  30C0               	movlw	low (__pbssBANK1+32)
   353  001E  120A  158A  2000  120A  118A  	fcall	clear_ram0
   354  0023                     end_of_initialization:	
   355                           ;End of C runtime variable initialization code
   356                           
   357  0023                     __end_of__initialization:
   358  0023  0183               	clrf	3
   359  0024  120A  158A  2863   	ljmp	_main	;jump to C main() function
   360                           
   361                           	psect	bssCOMMON
   362  0076                     __pbssCOMMON:
   363  0076                     _t4:
   364  0076                     	ds	1
   365  0077                     _t3:
   366  0077                     	ds	1
   367  0078                     _t2:
   368  0078                     	ds	1
   369  0079                     _t1:
   370  0079                     	ds	1
   371                           
   372                           	psect	bssBANK0
   373  006F                     __pbssBANK0:
   374  006F                     _t5:
   375  006F                     	ds	1
   376                           
   377                           	psect	bssBANK1
   378  00A0                     __pbssBANK1:
   379  00A0                     _distance:
   380  00A0                     	ds	2
   381  00A2                     _counter:
   382  00A2                     	ds	2
   383  00A4                     _A3:
   384  00A4                     	ds	2
   385  00A6                     _A2:
   386  00A6                     	ds	2
   387  00A8                     _A1:
   388  00A8                     	ds	2
   389  00AA                     _i:
   390  00AA                     	ds	2
   391  00AC                     _angle:
   392  00AC                     	ds	2
   393  00AE                     _d6:
   394  00AE                     	ds	2
   395  00B0                     _d5:
   396  00B0                     	ds	2
   397  00B2                     _d4:
   398  00B2                     	ds	2
   399  00B4                     _pot_value:
   400  00B4                     	ds	2
   401  00B6                     _count:
   402  00B6                     	ds	2
   403  00B8                     _on_time:
   404  00B8                     	ds	2
   405  00BA                     _d3:
   406  00BA                     	ds	1
   407  00BB                     _d2:
   408  00BB                     	ds	1
   409  00BC                     _d1:
   410  00BC                     	ds	1
   411  00BD                     _f:
   412  00BD                     	ds	1
   413  00BE                     _time_taken:
   414  00BE                     	ds	2
   415                           
   416                           	psect	clrtext
   417  0800                     clear_ram0:	
   418                           ;	Called with FSR containing the base address, and
   419                           ;	W with the last address+1
   420                           
   421  0800  0064               	clrwdt	;clear the watchdog before getting into this loop
   422  0801                     clrloop0:
   423  0801  0180               	clrf	0	;clear RAM location pointed to by FSR
   424  0802  0A84               	incf	4,f	;increment pointer
   425  0803  0604               	xorwf	4,w	;XOR with final address
   426  0804  1903               	btfsc	3,2	;have we reached the end yet?
   427  0805  3400               	retlw	0	;all done for this memory range, return
   428  0806  0604               	xorwf	4,w	;XOR again to restore value
   429  0807  2801               	goto	clrloop0	;do the next byte
   430                           
   431                           	psect	cstackBANK1
   432  00C0                     __pcstackBANK1:
   433  00C0                     ??___fladd:
   434                           
   435                           ; 1 bytes @ 0x0
   436  00C0                     	ds	8
   437  00C8                     ?___fltol:
   438  00C8                     ___fltol@f1:	
   439                           ; 4 bytes @ 0x8
   440                           
   441                           
   442                           ; 4 bytes @ 0x8
   443  00C8                     	ds	4
   444  00CC                     ??___fltol:
   445                           
   446                           ; 1 bytes @ 0xC
   447  00CC                     	ds	5
   448  00D1                     ___fltol@sign1:
   449                           
   450                           ; 1 bytes @ 0x11
   451  00D1                     	ds	1
   452  00D2                     ___fltol@exp1:
   453                           
   454                           ; 1 bytes @ 0x12
   455  00D2                     	ds	1
   456  00D3                     ??_dista_cal:
   457                           
   458                           ; 1 bytes @ 0x13
   459  00D3                     	ds	3
   460  00D6                     dista_cal@n:
   461                           
   462                           ; 2 bytes @ 0x16
   463  00D6                     	ds	2
   464  00D8                     dista_cal@p:
   465                           
   466                           ; 2 bytes @ 0x18
   467  00D8                     	ds	2
   468  00DA                     ??_main:
   469                           
   470                           ; 1 bytes @ 0x1A
   471  00DA                     	ds	3
   472                           
   473                           	psect	cstackCOMMON
   474  0070                     __pcstackCOMMON:
   475  0070                     ?_lcdcmd:
   476  0070                     ?_timer_isr:	
   477                           ; 1 bytes @ 0x0
   478                           
   479  0070                     ??_timer_isr:	
   480                           ; 1 bytes @ 0x0
   481                           
   482  0070                     ?_lcdinit:	
   483                           ; 1 bytes @ 0x0
   484                           
   485  0070                     ?_pulse:	
   486                           ; 1 bytes @ 0x0
   487                           
   488  0070                     ?_lcddat:	
   489                           ; 1 bytes @ 0x0
   490                           
   491  0070                     ?_lcdstring:	
   492                           ; 1 bytes @ 0x0
   493                           
   494  0070                     ?_intial_inter:	
   495                           ; 1 bytes @ 0x0
   496                           
   497  0070                     ?_dista_cal:	
   498                           ; 1 bytes @ 0x0
   499                           
   500  0070                     ?_servo:	
   501                           ; 1 bytes @ 0x0
   502                           
   503  0070                     ?_main:	
   504                           ; 1 bytes @ 0x0
   505                           
   506                           
   507                           ; 2 bytes @ 0x0
   508  0070                     	ds	4
   509  0074                     ??_pulse:
   510  0074                     ??_intial_inter:	
   511                           ; 1 bytes @ 0x4
   512                           
   513  0074                     ??___awdiv:	
   514                           ; 1 bytes @ 0x4
   515                           
   516  0074                     ?__Umul8_16:	
   517                           ; 1 bytes @ 0x4
   518                           
   519  0074                     __Umul8_16@multiplicand:	
   520                           ; 2 bytes @ 0x4
   521                           
   522                           
   523                           ; 1 bytes @ 0x4
   524  0074                     	ds	1
   525  0075                     ??___awmod:
   526                           
   527                           ; 1 bytes @ 0x5
   528  0075                     	ds	1
   529  0076                     ??_lcdcmd:
   530  0076                     ??_lcdinit:	
   531                           ; 1 bytes @ 0x6
   532                           
   533  0076                     ??_lcddat:	
   534                           ; 1 bytes @ 0x6
   535                           
   536                           
   537                           	psect	cstackBANK0
   538  0020                     __pcstackBANK0:	
   539                           ; 1 bytes @ 0x6
   540                           
   541  0020                     ??__Umul8_16:
   542  0020                     ?___awdiv:	
   543                           ; 1 bytes @ 0x0
   544                           
   545  0020                     ?___xxtofl:	
   546                           ; 2 bytes @ 0x0
   547                           
   548  0020                     lcdcmd@cmd:	
   549                           ; 4 bytes @ 0x0
   550                           
   551  0020                     lcddat@cmd:	
   552                           ; 1 bytes @ 0x0
   553                           
   554  0020                     ___awdiv@divisor:	
   555                           ; 1 bytes @ 0x0
   556                           
   557  0020                     ___xxtofl@val:	
   558                           ; 2 bytes @ 0x0
   559                           
   560                           
   561                           ; 4 bytes @ 0x0
   562  0020                     	ds	1
   563  0021                     ??_lcdstring:
   564                           
   565                           ; 1 bytes @ 0x1
   566  0021                     	ds	1
   567  0022                     lcdstring@s:
   568  0022                     ___awdiv@dividend:	
   569                           ; 1 bytes @ 0x2
   570                           
   571  0022                     __Umul8_16@product:	
   572                           ; 2 bytes @ 0x2
   573                           
   574                           
   575                           ; 2 bytes @ 0x2
   576  0022                     	ds	2
   577  0024                     ??___xxtofl:
   578  0024                     ___awdiv@counter:	
   579                           ; 1 bytes @ 0x4
   580                           
   581  0024                     __Umul8_16@word_mpld:	
   582                           ; 1 bytes @ 0x4
   583                           
   584                           
   585                           ; 2 bytes @ 0x4
   586  0024                     	ds	1
   587  0025                     ___awdiv@sign:
   588                           
   589                           ; 1 bytes @ 0x5
   590  0025                     	ds	1
   591  0026                     __Umul8_16@multiplier:
   592  0026                     ___awdiv@quotient:	
   593                           ; 1 bytes @ 0x6
   594                           
   595                           
   596                           ; 2 bytes @ 0x6
   597  0026                     	ds	2
   598  0028                     ?___awmod:
   599  0028                     ___xxtofl@sign:	
   600                           ; 2 bytes @ 0x8
   601                           
   602  0028                     ___awmod@divisor:	
   603                           ; 1 bytes @ 0x8
   604                           
   605                           
   606                           ; 2 bytes @ 0x8
   607  0028                     	ds	1
   608  0029                     ___xxtofl@exp:
   609                           
   610                           ; 1 bytes @ 0x9
   611  0029                     	ds	1
   612  002A                     ___awmod@dividend:
   613  002A                     ___xxtofl@arg:	
   614                           ; 2 bytes @ 0xA
   615                           
   616                           
   617                           ; 4 bytes @ 0xA
   618  002A                     	ds	2
   619  002C                     ___awmod@counter:
   620                           
   621                           ; 1 bytes @ 0xC
   622  002C                     	ds	1
   623  002D                     ___awmod@sign:
   624                           
   625                           ; 1 bytes @ 0xD
   626  002D                     	ds	1
   627  002E                     ?___flmul:
   628  002E                     ___flmul@b:	
   629                           ; 4 bytes @ 0xE
   630                           
   631                           
   632                           ; 4 bytes @ 0xE
   633  002E                     	ds	4
   634  0032                     ___flmul@a:
   635                           
   636                           ; 4 bytes @ 0x12
   637  0032                     	ds	4
   638  0036                     ??___flmul:
   639                           
   640                           ; 1 bytes @ 0x16
   641  0036                     	ds	5
   642  003B                     ___flmul@sign:
   643                           
   644                           ; 1 bytes @ 0x1B
   645  003B                     	ds	1
   646  003C                     ___flmul@aexp:
   647                           
   648                           ; 1 bytes @ 0x1C
   649  003C                     	ds	1
   650  003D                     ___flmul@grs:
   651                           
   652                           ; 4 bytes @ 0x1D
   653  003D                     	ds	4
   654  0041                     ___flmul@bexp:
   655                           
   656                           ; 1 bytes @ 0x21
   657  0041                     	ds	1
   658  0042                     ___flmul@prod:
   659                           
   660                           ; 4 bytes @ 0x22
   661  0042                     	ds	4
   662  0046                     ___flmul@temp:
   663                           
   664                           ; 2 bytes @ 0x26
   665  0046                     	ds	2
   666  0048                     ?___fldiv:
   667  0048                     ___fldiv@a:	
   668                           ; 4 bytes @ 0x28
   669                           
   670                           
   671                           ; 4 bytes @ 0x28
   672  0048                     	ds	4
   673  004C                     ___fldiv@b:
   674                           
   675                           ; 4 bytes @ 0x2C
   676  004C                     	ds	4
   677  0050                     ??___fldiv:
   678                           
   679                           ; 1 bytes @ 0x30
   680  0050                     	ds	5
   681  0055                     ___fldiv@rem:
   682                           
   683                           ; 4 bytes @ 0x35
   684  0055                     	ds	4
   685  0059                     ___fldiv@sign:
   686                           
   687                           ; 1 bytes @ 0x39
   688  0059                     	ds	1
   689  005A                     ___fldiv@new_exp:
   690                           
   691                           ; 2 bytes @ 0x3A
   692  005A                     	ds	2
   693  005C                     ___fldiv@grs:
   694                           
   695                           ; 4 bytes @ 0x3C
   696  005C                     	ds	4
   697  0060                     ___fldiv@bexp:
   698                           
   699                           ; 1 bytes @ 0x40
   700  0060                     	ds	1
   701  0061                     ___fldiv@aexp:
   702                           
   703                           ; 1 bytes @ 0x41
   704  0061                     	ds	1
   705  0062                     ?___fladd:
   706  0062                     ___fladd@b:	
   707                           ; 4 bytes @ 0x42
   708                           
   709                           
   710                           ; 4 bytes @ 0x42
   711  0062                     	ds	4
   712  0066                     ___fladd@a:
   713                           
   714                           ; 4 bytes @ 0x46
   715  0066                     	ds	4
   716  006A                     ___fladd@signs:
   717                           
   718                           ; 1 bytes @ 0x4A
   719  006A                     	ds	1
   720  006B                     ___fladd@aexp:
   721                           
   722                           ; 1 bytes @ 0x4B
   723  006B                     	ds	1
   724  006C                     ___fladd@bexp:
   725                           
   726                           ; 1 bytes @ 0x4C
   727  006C                     	ds	1
   728  006D                     ___fladd@grs:
   729                           
   730                           ; 1 bytes @ 0x4D
   731  006D                     	ds	1
   732  006E                     ??_servo:
   733                           
   734                           ; 1 bytes @ 0x4E
   735  006E                     	ds	1
   736                           
   737                           	psect	maintext
   738  0863                     __pmaintext:	
   739 ;;
   740 ;;Main: autosize = 0, tempsize = 3, incstack = 0, save=0
   741 ;;
   742 ;; *************** function _main *****************
   743 ;; Defined at:
   744 ;;		line 249 in file "123mod.c"
   745 ;; Parameters:    Size  Location     Type
   746 ;;		None
   747 ;; Auto vars:     Size  Location     Type
   748 ;;		None
   749 ;; Return value:  Size  Location     Type
   750 ;;                  2  149[None  ] int 
   751 ;; Registers used:
   752 ;;		wreg, fsr0l, fsr0h, status,2, status,0, btemp+1, pclath, cstack
   753 ;; Tracked objects:
   754 ;;		On entry : B00/0
   755 ;;		On exit  : 0/0
   756 ;;		Unchanged: 0/0
   757 ;; Data sizes:     COMMON   BANK0   BANK1   BANK3   BANK2
   758 ;;      Params:         0       0       0       0       0
   759 ;;      Locals:         0       0       0       0       0
   760 ;;      Temps:          0       0       3       0       0
   761 ;;      Totals:         0       0       3       0       0
   762 ;;Total ram usage:        3 bytes
   763 ;; Hardware stack levels required when called: 6
   764 ;; This function calls:
   765 ;;		_intial_inter
   766 ;;		_lcdcmd
   767 ;;		_lcdinit
   768 ;;		_lcdstring
   769 ;;		_servo
   770 ;; This function is called by:
   771 ;;		Startup code after reset
   772 ;; This function uses a non-reentrant model
   773 ;;
   774                           
   775                           
   776                           ;psect for function _main
   777  0863                     _main:
   778  0863                     l3051:	
   779                           ;incstack = 0
   780                           ; Regs used in _main: [wreg-fsr0h+status,2+status,0+btemp+1+pclath+cstack]
   781                           
   782  0863  160A  118A  278B  120A  158A  	fcall	_intial_inter
   783  0868                     l3053:
   784  0868  1683               	bsf	3,5	;RP0=1, select bank1
   785  0869  1303               	bcf	3,6	;RP1=0, select bank1
   786  086A  0188               	clrf	8	;volatile
   787  086B                     l3055:
   788  086B  1007               	bcf	7,0	;volatile
   789  086C                     l3057:
   790  086C  1087               	bcf	7,1	;volatile
   791  086D                     l3059:
   792  086D  1086               	bcf	6,1	;volatile
   793  086E                     l3061:
   794  086E  1506               	bsf	6,2	;volatile
   795  086F                     l3063:
   796  086F  3020               	movlw	32
   797  0870  1283               	bcf	3,5	;RP0=0, select bank0
   798  0871  1303               	bcf	3,6	;RP1=0, select bank0
   799  0872  0090               	movwf	16	;volatile
   800  0873                     l3065:
   801  0873  160A  118A  2798  120A  158A  	fcall	_lcdinit
   802  0878                     l3067:
   803  0878  3080               	movlw	128
   804  0879  160A  118A  2773  120A  158A  	fcall	_lcdcmd
   805  087E                     l3069:
   806  087E  3013               	movlw	(low ((STR_5-__stringbase)| (0+32768)))& (0+255)
   807  087F  160A  118A  27B4  120A  158A  	fcall	_lcdstring
   808  0884                     l3071:
   809  0884  30C0               	movlw	192
   810  0885  160A  118A  2773  120A  158A  	fcall	_lcdcmd
   811  088A                     l3073:
   812  088A  3025               	movlw	(low ((STR_6-__stringbase)| (0+32768)))& (0+255)
   813  088B  160A  118A  27B4  120A  158A  	fcall	_lcdstring
   814  0890                     l3075:
   815  0890  300D               	movlw	13
   816  0891  1683               	bsf	3,5	;RP0=1, select bank1
   817  0892  1303               	bcf	3,6	;RP1=0, select bank1
   818  0893  00DC               	movwf	(??_main^(0+128)+2)
   819  0894  30AF               	movlw	175
   820  0895  00DB               	movwf	(??_main^(0+128)+1)
   821  0896  30B5               	movlw	181
   822  0897  00DA               	movwf	??_main^(0+128)
   823  0898                     u4707:
   824  0898  0BDA               	decfsz	??_main^(0+128),f
   825  0899  2898               	goto	u4707
   826  089A  0BDB               	decfsz	(??_main^(0+128)+1),f
   827  089B  2898               	goto	u4707
   828  089C  0BDC               	decfsz	(??_main^(0+128)+2),f
   829  089D  2898               	goto	u4707
   830  089E  289F               	nop2
   831  089F                     l3077:
   832  089F  3001               	movlw	1
   833  08A0  160A  118A  2773  120A  158A  	fcall	_lcdcmd
   834  08A5                     l3079:
   835  08A5  3080               	movlw	128
   836  08A6  160A  118A  2773  120A  158A  	fcall	_lcdcmd
   837  08AB                     l3081:
   838  08AB  3035               	movlw	(low ((STR_7-__stringbase)| (0+32768)))& (0+255)
   839  08AC  160A  118A  27B4  120A  158A  	fcall	_lcdstring
   840  08B1                     l3083:
   841  08B1  301A               	movlw	26
   842  08B2  1683               	bsf	3,5	;RP0=1, select bank1
   843  08B3  1303               	bcf	3,6	;RP1=0, select bank1
   844  08B4  00DC               	movwf	(??_main^(0+128)+2)
   845  08B5  305E               	movlw	94
   846  08B6  00DB               	movwf	(??_main^(0+128)+1)
   847  08B7  306D               	movlw	109
   848  08B8  00DA               	movwf	??_main^(0+128)
   849  08B9                     u4717:
   850  08B9  0BDA               	decfsz	??_main^(0+128),f
   851  08BA  28B9               	goto	u4717
   852  08BB  0BDB               	decfsz	(??_main^(0+128)+1),f
   853  08BC  28B9               	goto	u4717
   854  08BD  0BDC               	decfsz	(??_main^(0+128)+2),f
   855  08BE  28B9               	goto	u4717
   856  08BF  28C0               	nop2
   857  08C0                     l3085:
   858  08C0  120A  158A  21AE  120A  158A  	fcall	_servo
   859  08C5  28C0               	goto	l3085
   860  08C6  120A  118A  2810   	ljmp	start
   861  08C9                     __end_of_main:
   862                           
   863                           	psect	text1
   864  09AE                     __ptext1:	
   865 ;; *************** function _servo *****************
   866 ;; Defined at:
   867 ;;		line 225 in file "123mod.c"
   868 ;; Parameters:    Size  Location     Type
   869 ;;		None
   870 ;; Auto vars:     Size  Location     Type
   871 ;;		None
   872 ;; Return value:  Size  Location     Type
   873 ;;                  1    wreg      void 
   874 ;; Registers used:
   875 ;;		wreg, fsr0l, fsr0h, status,2, status,0, btemp+1, pclath, cstack
   876 ;; Tracked objects:
   877 ;;		On entry : 0/0
   878 ;;		On exit  : 0/0
   879 ;;		Unchanged: 0/0
   880 ;; Data sizes:     COMMON   BANK0   BANK1   BANK3   BANK2
   881 ;;      Params:         0       0       0       0       0
   882 ;;      Locals:         0       0       0       0       0
   883 ;;      Temps:          0       1       0       0       0
   884 ;;      Totals:         0       1       0       0       0
   885 ;;Total ram usage:        1 bytes
   886 ;; Hardware stack levels used: 1
   887 ;; Hardware stack levels required when called: 5
   888 ;; This function calls:
   889 ;;		___flmul
   890 ;;		___fltol
   891 ;;		___xxtofl
   892 ;;		_dista_cal
   893 ;; This function is called by:
   894 ;;		_main
   895 ;; This function uses a non-reentrant model
   896 ;;
   897                           
   898                           
   899                           ;psect for function _servo
   900  09AE                     _servo:
   901  09AE                     l3013:	
   902                           ;incstack = 0
   903                           ; Regs used in _servo: [wreg-fsr0h+status,2+status,0+btemp+1+pclath+cstack]
   904                           
   905  09AE  2A76               	goto	l3031
   906  09AF                     l3015:
   907  09AF  120A  158A  2531  120A  158A  	fcall	_dista_cal
   908  09B4                     l3017:
   909  09B4  1683               	bsf	3,5	;RP0=1, select bank1
   910  09B5  1303               	bcf	3,6	;RP1=0, select bank1
   911  09B6  033D               	decf	_f^(0+128),w
   912  09B7  1D03               	btfss	3,2
   913  09B8  29BA               	goto	u4661
   914  09B9  29BB               	goto	u4660
   915  09BA                     u4661:
   916  09BA  29BC               	goto	l3021
   917  09BB                     u4660:
   918  09BB  2B4D               	goto	l3049
   919  09BC                     l3021:
   920  09BC  082A               	movf	_i^(0+128),w
   921  09BD  1283               	bcf	3,5	;RP0=0, select bank0
   922  09BE  1303               	bcf	3,6	;RP1=0, select bank0
   923  09BF  00A0               	movwf	___xxtofl@val
   924  09C0  1683               	bsf	3,5	;RP0=1, select bank1
   925  09C1  1303               	bcf	3,6	;RP1=0, select bank1
   926  09C2  082B               	movf	(_i+1)^(0+128),w
   927  09C3  1283               	bcf	3,5	;RP0=0, select bank0
   928  09C4  1303               	bcf	3,6	;RP1=0, select bank0
   929  09C5  00A1               	movwf	___xxtofl@val+1
   930  09C6  3000               	movlw	0
   931  09C7  1BA1               	btfsc	___xxtofl@val+1,7
   932  09C8  30FF               	movlw	255
   933  09C9  00A2               	movwf	___xxtofl@val+2
   934  09CA  00A3               	movwf	___xxtofl@val+3
   935  09CB  3001               	movlw	1
   936  09CC  120A  118A  26EE  120A  158A  	fcall	___xxtofl
   937  09D1  1283               	bcf	3,5	;RP0=0, select bank0
   938  09D2  1303               	bcf	3,6	;RP1=0, select bank0
   939  09D3  0823               	movf	?___xxtofl+3,w
   940  09D4  00B5               	movwf	___flmul@a+3
   941  09D5  0822               	movf	?___xxtofl+2,w
   942  09D6  00B4               	movwf	___flmul@a+2
   943  09D7  0821               	movf	?___xxtofl+1,w
   944  09D8  00B3               	movwf	___flmul@a+1
   945  09D9  0820               	movf	?___xxtofl,w
   946  09DA  00B2               	movwf	___flmul@a
   947  09DB  303D               	movlw	61
   948  09DC  00B1               	movwf	___flmul@b+3
   949  09DD  301F               	movlw	31
   950  09DE  00B0               	movwf	___flmul@b+2
   951  09DF  30BE               	movlw	190
   952  09E0  00AF               	movwf	___flmul@b+1
   953  09E1  3077               	movlw	119
   954  09E2  00AE               	movwf	___flmul@b
   955  09E3  120A  118A  238D  120A  158A  	fcall	___flmul
   956  09E8  1283               	bcf	3,5	;RP0=0, select bank0
   957  09E9  1303               	bcf	3,6	;RP1=0, select bank0
   958  09EA  0831               	movf	?___flmul+3,w
   959  09EB  1683               	bsf	3,5	;RP0=1, select bank1
   960  09EC  1303               	bcf	3,6	;RP1=0, select bank1
   961  09ED  00CB               	movwf	(___fltol@f1+3)^(0+128)
   962  09EE  1283               	bcf	3,5	;RP0=0, select bank0
   963  09EF  1303               	bcf	3,6	;RP1=0, select bank0
   964  09F0  0830               	movf	?___flmul+2,w
   965  09F1  1683               	bsf	3,5	;RP0=1, select bank1
   966  09F2  1303               	bcf	3,6	;RP1=0, select bank1
   967  09F3  00CA               	movwf	(___fltol@f1+2)^(0+128)
   968  09F4  1283               	bcf	3,5	;RP0=0, select bank0
   969  09F5  1303               	bcf	3,6	;RP1=0, select bank0
   970  09F6  082F               	movf	?___flmul+1,w
   971  09F7  1683               	bsf	3,5	;RP0=1, select bank1
   972  09F8  1303               	bcf	3,6	;RP1=0, select bank1
   973  09F9  00C9               	movwf	(___fltol@f1+1)^(0+128)
   974  09FA  1283               	bcf	3,5	;RP0=0, select bank0
   975  09FB  1303               	bcf	3,6	;RP1=0, select bank0
   976  09FC  082E               	movf	?___flmul,w
   977  09FD  1683               	bsf	3,5	;RP0=1, select bank1
   978  09FE  1303               	bcf	3,6	;RP1=0, select bank1
   979  09FF  00C8               	movwf	___fltol@f1^(0+128)
   980  0A00  120A  158A  2132  120A  158A  	fcall	___fltol
   981  0A05  1683               	bsf	3,5	;RP0=1, select bank1
   982  0A06  1303               	bcf	3,6	;RP1=0, select bank1
   983  0A07  0849               	movf	(?___fltol+1)^(0+128),w
   984  0A08  00B5               	movwf	(_pot_value+1)^(0+128)
   985  0A09  0848               	movf	?___fltol^(0+128),w
   986  0A0A  00B4               	movwf	_pot_value^(0+128)
   987  0A0B                     l3023:
   988  0A0B  30AA               	movlw	170
   989  0A0C  1283               	bcf	3,5	;RP0=0, select bank0
   990  0A0D  1303               	bcf	3,6	;RP1=0, select bank0
   991  0A0E  00EE               	movwf	??_servo
   992  0A0F  1683               	bsf	3,5	;RP0=1, select bank1
   993  0A10  1303               	bcf	3,6	;RP1=0, select bank1
   994  0A11  0834               	movf	_pot_value^(0+128),w
   995  0A12  1283               	bcf	3,5	;RP0=0, select bank0
   996  0A13  1303               	bcf	3,6	;RP1=0, select bank0
   997  0A14  026E               	subwf	??_servo,w
   998  0A15  1683               	bsf	3,5	;RP0=1, select bank1
   999  0A16  1303               	bcf	3,6	;RP1=0, select bank1
  1000  0A17  00B8               	movwf	_on_time^(0+128)
  1001  0A18  0935               	comf	(_pot_value+1)^(0+128),w
  1002  0A19  1803               	skipnc
  1003  0A1A  3E01               	addlw	1
  1004  0A1B  00B9               	movwf	(_on_time^(0+128)+1)
  1005  0A1C                     l3025:
  1006  0A1C  082A               	movf	_i^(0+128),w
  1007  0A1D  1283               	bcf	3,5	;RP0=0, select bank0
  1008  0A1E  1303               	bcf	3,6	;RP1=0, select bank0
  1009  0A1F  00A0               	movwf	___xxtofl@val
  1010  0A20  1683               	bsf	3,5	;RP0=1, select bank1
  1011  0A21  1303               	bcf	3,6	;RP1=0, select bank1
  1012  0A22  082B               	movf	(_i+1)^(0+128),w
  1013  0A23  1283               	bcf	3,5	;RP0=0, select bank0
  1014  0A24  1303               	bcf	3,6	;RP1=0, select bank0
  1015  0A25  00A1               	movwf	___xxtofl@val+1
  1016  0A26  3000               	movlw	0
  1017  0A27  1BA1               	btfsc	___xxtofl@val+1,7
  1018  0A28  30FF               	movlw	255
  1019  0A29  00A2               	movwf	___xxtofl@val+2
  1020  0A2A  00A3               	movwf	___xxtofl@val+3
  1021  0A2B  3001               	movlw	1
  1022  0A2C  120A  118A  26EE  120A  158A  	fcall	___xxtofl
  1023  0A31  1283               	bcf	3,5	;RP0=0, select bank0
  1024  0A32  1303               	bcf	3,6	;RP1=0, select bank0
  1025  0A33  0823               	movf	?___xxtofl+3,w
  1026  0A34  00B5               	movwf	___flmul@a+3
  1027  0A35  0822               	movf	?___xxtofl+2,w
  1028  0A36  00B4               	movwf	___flmul@a+2
  1029  0A37  0821               	movf	?___xxtofl+1,w
  1030  0A38  00B3               	movwf	___flmul@a+1
  1031  0A39  0820               	movf	?___xxtofl,w
  1032  0A3A  00B2               	movwf	___flmul@a
  1033  0A3B  303E               	movlw	62
  1034  0A3C  00B1               	movwf	___flmul@b+3
  1035  0A3D  3034               	movlw	52
  1036  0A3E  00B0               	movwf	___flmul@b+2
  1037  0A3F  302D               	movlw	45
  1038  0A40  00AF               	movwf	___flmul@b+1
  1039  0A41  3006               	movlw	6
  1040  0A42  00AE               	movwf	___flmul@b
  1041  0A43  120A  118A  238D  120A  158A  	fcall	___flmul
  1042  0A48  1283               	bcf	3,5	;RP0=0, select bank0
  1043  0A49  1303               	bcf	3,6	;RP1=0, select bank0
  1044  0A4A  0831               	movf	?___flmul+3,w
  1045  0A4B  1683               	bsf	3,5	;RP0=1, select bank1
  1046  0A4C  1303               	bcf	3,6	;RP1=0, select bank1
  1047  0A4D  00CB               	movwf	(___fltol@f1+3)^(0+128)
  1048  0A4E  1283               	bcf	3,5	;RP0=0, select bank0
  1049  0A4F  1303               	bcf	3,6	;RP1=0, select bank0
  1050  0A50  0830               	movf	?___flmul+2,w
  1051  0A51  1683               	bsf	3,5	;RP0=1, select bank1
  1052  0A52  1303               	bcf	3,6	;RP1=0, select bank1
  1053  0A53  00CA               	movwf	(___fltol@f1+2)^(0+128)
  1054  0A54  1283               	bcf	3,5	;RP0=0, select bank0
  1055  0A55  1303               	bcf	3,6	;RP1=0, select bank0
  1056  0A56  082F               	movf	?___flmul+1,w
  1057  0A57  1683               	bsf	3,5	;RP0=1, select bank1
  1058  0A58  1303               	bcf	3,6	;RP1=0, select bank1
  1059  0A59  00C9               	movwf	(___fltol@f1+1)^(0+128)
  1060  0A5A  1283               	bcf	3,5	;RP0=0, select bank0
  1061  0A5B  1303               	bcf	3,6	;RP1=0, select bank0
  1062  0A5C  082E               	movf	?___flmul,w
  1063  0A5D  1683               	bsf	3,5	;RP0=1, select bank1
  1064  0A5E  1303               	bcf	3,6	;RP1=0, select bank1
  1065  0A5F  00C8               	movwf	___fltol@f1^(0+128)
  1066  0A60  120A  158A  2132  120A  158A  	fcall	___fltol
  1067  0A65  1683               	bsf	3,5	;RP0=1, select bank1
  1068  0A66  1303               	bcf	3,6	;RP1=0, select bank1
  1069  0A67  0849               	movf	(?___fltol+1)^(0+128),w
  1070  0A68  00AD               	movwf	(_angle+1)^(0+128)
  1071  0A69  0848               	movf	?___fltol^(0+128),w
  1072  0A6A  00AC               	movwf	_angle^(0+128)
  1073  0A6B                     l3027:
  1074  0A6B  2A6C               	nop2	;2 cycle nop
  1075  0A6C                     l3029:
  1076  0A6C  1683               	bsf	3,5	;RP0=1, select bank1
  1077  0A6D  1303               	bcf	3,6	;RP1=0, select bank1
  1078  0A6E  082A               	movf	_i^(0+128),w
  1079  0A6F  3E32               	addlw	50
  1080  0A70  00AA               	movwf	_i^(0+128)
  1081  0A71  082B               	movf	(_i+1)^(0+128),w
  1082  0A72  1803               	skipnc
  1083  0A73  3E01               	addlw	1
  1084  0A74  3E00               	addlw	0
  1085  0A75  00AB               	movwf	(_i+1)^(0+128)
  1086  0A76                     l3031:
  1087  0A76  1683               	bsf	3,5	;RP0=1, select bank1
  1088  0A77  1303               	bcf	3,6	;RP1=0, select bank1
  1089  0A78  082B               	movf	(_i+1)^(0+128),w
  1090  0A79  3A80               	xorlw	128
  1091  0A7A  00FF               	movwf	btemp+1
  1092  0A7B  3084               	movlw	132
  1093  0A7C  027F               	subwf	btemp+1,w
  1094  0A7D  1D03               	skipz
  1095  0A7E  2A81               	goto	u4675
  1096  0A7F  3000               	movlw	0
  1097  0A80  022A               	subwf	_i^(0+128),w
  1098  0A81                     u4675:
  1099  0A81  1C03               	skipc
  1100  0A82  2A84               	goto	u4671
  1101  0A83  2A85               	goto	u4670
  1102  0A84                     u4671:
  1103  0A84  29AF               	goto	l3015
  1104  0A85                     u4670:
  1105  0A85  2B4D               	goto	l3049
  1106  0A86                     l3033:
  1107  0A86  120A  158A  2531  120A  158A  	fcall	_dista_cal
  1108  0A8B                     l3035:
  1109  0A8B  1683               	bsf	3,5	;RP0=1, select bank1
  1110  0A8C  1303               	bcf	3,6	;RP1=0, select bank1
  1111  0A8D  033D               	decf	_f^(0+128),w
  1112  0A8E  1D03               	btfss	3,2
  1113  0A8F  2A91               	goto	u4681
  1114  0A90  2A92               	goto	u4680
  1115  0A91                     u4681:
  1116  0A91  2A93               	goto	l3039
  1117  0A92                     u4680:
  1118  0A92  2B53               	goto	l145
  1119  0A93                     l3039:
  1120  0A93  082A               	movf	_i^(0+128),w
  1121  0A94  1283               	bcf	3,5	;RP0=0, select bank0
  1122  0A95  1303               	bcf	3,6	;RP1=0, select bank0
  1123  0A96  00A0               	movwf	___xxtofl@val
  1124  0A97  1683               	bsf	3,5	;RP0=1, select bank1
  1125  0A98  1303               	bcf	3,6	;RP1=0, select bank1
  1126  0A99  082B               	movf	(_i+1)^(0+128),w
  1127  0A9A  1283               	bcf	3,5	;RP0=0, select bank0
  1128  0A9B  1303               	bcf	3,6	;RP1=0, select bank0
  1129  0A9C  00A1               	movwf	___xxtofl@val+1
  1130  0A9D  3000               	movlw	0
  1131  0A9E  1BA1               	btfsc	___xxtofl@val+1,7
  1132  0A9F  30FF               	movlw	255
  1133  0AA0  00A2               	movwf	___xxtofl@val+2
  1134  0AA1  00A3               	movwf	___xxtofl@val+3
  1135  0AA2  3001               	movlw	1
  1136  0AA3  120A  118A  26EE  120A  158A  	fcall	___xxtofl
  1137  0AA8  1283               	bcf	3,5	;RP0=0, select bank0
  1138  0AA9  1303               	bcf	3,6	;RP1=0, select bank0
  1139  0AAA  0823               	movf	?___xxtofl+3,w
  1140  0AAB  00B5               	movwf	___flmul@a+3
  1141  0AAC  0822               	movf	?___xxtofl+2,w
  1142  0AAD  00B4               	movwf	___flmul@a+2
  1143  0AAE  0821               	movf	?___xxtofl+1,w
  1144  0AAF  00B3               	movwf	___flmul@a+1
  1145  0AB0  0820               	movf	?___xxtofl,w
  1146  0AB1  00B2               	movwf	___flmul@a
  1147  0AB2  303D               	movlw	61
  1148  0AB3  00B1               	movwf	___flmul@b+3
  1149  0AB4  301F               	movlw	31
  1150  0AB5  00B0               	movwf	___flmul@b+2
  1151  0AB6  30BE               	movlw	190
  1152  0AB7  00AF               	movwf	___flmul@b+1
  1153  0AB8  3077               	movlw	119
  1154  0AB9  00AE               	movwf	___flmul@b
  1155  0ABA  120A  118A  238D  120A  158A  	fcall	___flmul
  1156  0ABF  1283               	bcf	3,5	;RP0=0, select bank0
  1157  0AC0  1303               	bcf	3,6	;RP1=0, select bank0
  1158  0AC1  0831               	movf	?___flmul+3,w
  1159  0AC2  1683               	bsf	3,5	;RP0=1, select bank1
  1160  0AC3  1303               	bcf	3,6	;RP1=0, select bank1
  1161  0AC4  00CB               	movwf	(___fltol@f1+3)^(0+128)
  1162  0AC5  1283               	bcf	3,5	;RP0=0, select bank0
  1163  0AC6  1303               	bcf	3,6	;RP1=0, select bank0
  1164  0AC7  0830               	movf	?___flmul+2,w
  1165  0AC8  1683               	bsf	3,5	;RP0=1, select bank1
  1166  0AC9  1303               	bcf	3,6	;RP1=0, select bank1
  1167  0ACA  00CA               	movwf	(___fltol@f1+2)^(0+128)
  1168  0ACB  1283               	bcf	3,5	;RP0=0, select bank0
  1169  0ACC  1303               	bcf	3,6	;RP1=0, select bank0
  1170  0ACD  082F               	movf	?___flmul+1,w
  1171  0ACE  1683               	bsf	3,5	;RP0=1, select bank1
  1172  0ACF  1303               	bcf	3,6	;RP1=0, select bank1
  1173  0AD0  00C9               	movwf	(___fltol@f1+1)^(0+128)
  1174  0AD1  1283               	bcf	3,5	;RP0=0, select bank0
  1175  0AD2  1303               	bcf	3,6	;RP1=0, select bank0
  1176  0AD3  082E               	movf	?___flmul,w
  1177  0AD4  1683               	bsf	3,5	;RP0=1, select bank1
  1178  0AD5  1303               	bcf	3,6	;RP1=0, select bank1
  1179  0AD6  00C8               	movwf	___fltol@f1^(0+128)
  1180  0AD7  120A  158A  2132  120A  158A  	fcall	___fltol
  1181  0ADC  1683               	bsf	3,5	;RP0=1, select bank1
  1182  0ADD  1303               	bcf	3,6	;RP1=0, select bank1
  1183  0ADE  0849               	movf	(?___fltol+1)^(0+128),w
  1184  0ADF  00B5               	movwf	(_pot_value+1)^(0+128)
  1185  0AE0  0848               	movf	?___fltol^(0+128),w
  1186  0AE1  00B4               	movwf	_pot_value^(0+128)
  1187  0AE2                     l3041:
  1188  0AE2  30AA               	movlw	170
  1189  0AE3  1283               	bcf	3,5	;RP0=0, select bank0
  1190  0AE4  1303               	bcf	3,6	;RP1=0, select bank0
  1191  0AE5  00EE               	movwf	??_servo
  1192  0AE6  1683               	bsf	3,5	;RP0=1, select bank1
  1193  0AE7  1303               	bcf	3,6	;RP1=0, select bank1
  1194  0AE8  0834               	movf	_pot_value^(0+128),w
  1195  0AE9  1283               	bcf	3,5	;RP0=0, select bank0
  1196  0AEA  1303               	bcf	3,6	;RP1=0, select bank0
  1197  0AEB  026E               	subwf	??_servo,w
  1198  0AEC  1683               	bsf	3,5	;RP0=1, select bank1
  1199  0AED  1303               	bcf	3,6	;RP1=0, select bank1
  1200  0AEE  00B8               	movwf	_on_time^(0+128)
  1201  0AEF  0935               	comf	(_pot_value+1)^(0+128),w
  1202  0AF0  1803               	skipnc
  1203  0AF1  3E01               	addlw	1
  1204  0AF2  00B9               	movwf	(_on_time^(0+128)+1)
  1205  0AF3                     l3043:
  1206  0AF3  082A               	movf	_i^(0+128),w
  1207  0AF4  1283               	bcf	3,5	;RP0=0, select bank0
  1208  0AF5  1303               	bcf	3,6	;RP1=0, select bank0
  1209  0AF6  00A0               	movwf	___xxtofl@val
  1210  0AF7  1683               	bsf	3,5	;RP0=1, select bank1
  1211  0AF8  1303               	bcf	3,6	;RP1=0, select bank1
  1212  0AF9  082B               	movf	(_i+1)^(0+128),w
  1213  0AFA  1283               	bcf	3,5	;RP0=0, select bank0
  1214  0AFB  1303               	bcf	3,6	;RP1=0, select bank0
  1215  0AFC  00A1               	movwf	___xxtofl@val+1
  1216  0AFD  3000               	movlw	0
  1217  0AFE  1BA1               	btfsc	___xxtofl@val+1,7
  1218  0AFF  30FF               	movlw	255
  1219  0B00  00A2               	movwf	___xxtofl@val+2
  1220  0B01  00A3               	movwf	___xxtofl@val+3
  1221  0B02  3001               	movlw	1
  1222  0B03  120A  118A  26EE  120A  158A  	fcall	___xxtofl
  1223  0B08  1283               	bcf	3,5	;RP0=0, select bank0
  1224  0B09  1303               	bcf	3,6	;RP1=0, select bank0
  1225  0B0A  0823               	movf	?___xxtofl+3,w
  1226  0B0B  00B5               	movwf	___flmul@a+3
  1227  0B0C  0822               	movf	?___xxtofl+2,w
  1228  0B0D  00B4               	movwf	___flmul@a+2
  1229  0B0E  0821               	movf	?___xxtofl+1,w
  1230  0B0F  00B3               	movwf	___flmul@a+1
  1231  0B10  0820               	movf	?___xxtofl,w
  1232  0B11  00B2               	movwf	___flmul@a
  1233  0B12  303E               	movlw	62
  1234  0B13  00B1               	movwf	___flmul@b+3
  1235  0B14  3034               	movlw	52
  1236  0B15  00B0               	movwf	___flmul@b+2
  1237  0B16  302D               	movlw	45
  1238  0B17  00AF               	movwf	___flmul@b+1
  1239  0B18  3006               	movlw	6
  1240  0B19  00AE               	movwf	___flmul@b
  1241  0B1A  120A  118A  238D  120A  158A  	fcall	___flmul
  1242  0B1F  1283               	bcf	3,5	;RP0=0, select bank0
  1243  0B20  1303               	bcf	3,6	;RP1=0, select bank0
  1244  0B21  0831               	movf	?___flmul+3,w
  1245  0B22  1683               	bsf	3,5	;RP0=1, select bank1
  1246  0B23  1303               	bcf	3,6	;RP1=0, select bank1
  1247  0B24  00CB               	movwf	(___fltol@f1+3)^(0+128)
  1248  0B25  1283               	bcf	3,5	;RP0=0, select bank0
  1249  0B26  1303               	bcf	3,6	;RP1=0, select bank0
  1250  0B27  0830               	movf	?___flmul+2,w
  1251  0B28  1683               	bsf	3,5	;RP0=1, select bank1
  1252  0B29  1303               	bcf	3,6	;RP1=0, select bank1
  1253  0B2A  00CA               	movwf	(___fltol@f1+2)^(0+128)
  1254  0B2B  1283               	bcf	3,5	;RP0=0, select bank0
  1255  0B2C  1303               	bcf	3,6	;RP1=0, select bank0
  1256  0B2D  082F               	movf	?___flmul+1,w
  1257  0B2E  1683               	bsf	3,5	;RP0=1, select bank1
  1258  0B2F  1303               	bcf	3,6	;RP1=0, select bank1
  1259  0B30  00C9               	movwf	(___fltol@f1+1)^(0+128)
  1260  0B31  1283               	bcf	3,5	;RP0=0, select bank0
  1261  0B32  1303               	bcf	3,6	;RP1=0, select bank0
  1262  0B33  082E               	movf	?___flmul,w
  1263  0B34  1683               	bsf	3,5	;RP0=1, select bank1
  1264  0B35  1303               	bcf	3,6	;RP1=0, select bank1
  1265  0B36  00C8               	movwf	___fltol@f1^(0+128)
  1266  0B37  120A  158A  2132  120A  158A  	fcall	___fltol
  1267  0B3C  1683               	bsf	3,5	;RP0=1, select bank1
  1268  0B3D  1303               	bcf	3,6	;RP1=0, select bank1
  1269  0B3E  0849               	movf	(?___fltol+1)^(0+128),w
  1270  0B3F  00AD               	movwf	(_angle+1)^(0+128)
  1271  0B40  0848               	movf	?___fltol^(0+128),w
  1272  0B41  00AC               	movwf	_angle^(0+128)
  1273  0B42                     l3045:
  1274  0B42  2B43               	nop2	;2 cycle nop
  1275  0B43                     l3047:
  1276  0B43  1683               	bsf	3,5	;RP0=1, select bank1
  1277  0B44  1303               	bcf	3,6	;RP1=0, select bank1
  1278  0B45  082A               	movf	_i^(0+128),w
  1279  0B46  3ECE               	addlw	206
  1280  0B47  00AA               	movwf	_i^(0+128)
  1281  0B48  082B               	movf	(_i+1)^(0+128),w
  1282  0B49  1803               	skipnc
  1283  0B4A  3E01               	addlw	1
  1284  0B4B  3EFF               	addlw	255
  1285  0B4C  00AB               	movwf	(_i+1)^(0+128)
  1286  0B4D                     l3049:
  1287  0B4D  1683               	bsf	3,5	;RP0=1, select bank1
  1288  0B4E  1303               	bcf	3,6	;RP1=0, select bank1
  1289  0B4F  1FAB               	btfss	(_i+1)^(0+128),7
  1290  0B50  2B52               	goto	u4691
  1291  0B51  2B53               	goto	u4690
  1292  0B52                     u4691:
  1293  0B52  2A86               	goto	l3033
  1294  0B53                     u4690:
  1295  0B53                     l145:
  1296  0B53  0008               	return
  1297  0B54                     __end_of_servo:
  1298                           
  1299                           	psect	text2
  1300  0D31                     __ptext2:	
  1301 ;; *************** function _dista_cal *****************
  1302 ;; Defined at:
  1303 ;;		line 148 in file "123mod.c"
  1304 ;; Parameters:    Size  Location     Type
  1305 ;;		None
  1306 ;; Auto vars:     Size  Location     Type
  1307 ;;  p               2   24[BANK1 ] int 
  1308 ;;  n               2   22[BANK1 ] int 
  1309 ;; Return value:  Size  Location     Type
  1310 ;;                  1    wreg      void 
  1311 ;; Registers used:
  1312 ;;		wreg, fsr0l, fsr0h, status,2, status,0, btemp+1, pclath, cstack
  1313 ;; Tracked objects:
  1314 ;;		On entry : 0/0
  1315 ;;		On exit  : 0/0
  1316 ;;		Unchanged: 0/0
  1317 ;; Data sizes:     COMMON   BANK0   BANK1   BANK3   BANK2
  1318 ;;      Params:         0       0       0       0       0
  1319 ;;      Locals:         0       0       4       0       0
  1320 ;;      Temps:          0       0       3       0       0
  1321 ;;      Totals:         0       0       7       0       0
  1322 ;;Total ram usage:        7 bytes
  1323 ;; Hardware stack levels used: 1
  1324 ;; Hardware stack levels required when called: 4
  1325 ;; This function calls:
  1326 ;;		___awdiv
  1327 ;;		___awmod
  1328 ;;		___fladd
  1329 ;;		___fldiv
  1330 ;;		___flmul
  1331 ;;		___fltol
  1332 ;;		___xxtofl
  1333 ;;		_lcdcmd
  1334 ;;		_lcddat
  1335 ;;		_lcdstring
  1336 ;; This function is called by:
  1337 ;;		_servo
  1338 ;; This function uses a non-reentrant model
  1339 ;;
  1340                           
  1341                           
  1342                           ;psect for function _dista_cal
  1343  0D31                     _dista_cal:
  1344  0D31                     l2937:	
  1345                           ;incstack = 0
  1346                           ; Regs used in _dista_cal: [wreg-fsr0h+status,2+status,0+btemp+1+pclath+cstack]
  1347                           
  1348  0D31  1283               	bcf	3,5	;RP0=0, select bank0
  1349  0D32  1303               	bcf	3,6	;RP1=0, select bank0
  1350  0D33  018F               	clrf	15	;volatile
  1351  0D34  018E               	clrf	14	;volatile
  1352  0D35                     l2939:
  1353  0D35  1486               	bsf	6,1	;volatile
  1354  0D36                     l2941:
  1355  0D36  300F               	movlw	15
  1356  0D37  1683               	bsf	3,5	;RP0=1, select bank1
  1357  0D38  1303               	bcf	3,6	;RP1=0, select bank1
  1358  0D39  00D3               	movwf	??_dista_cal^(0+128)
  1359  0D3A                     u4727:
  1360  0D3A  0BD3               	decfsz	??_dista_cal^(0+128),f
  1361  0D3B  2D3A               	goto	u4727
  1362  0D3C  2D3D               	nop2
  1363  0D3D                     l2943:
  1364  0D3D  1283               	bcf	3,5	;RP0=0, select bank0
  1365  0D3E  1303               	bcf	3,6	;RP1=0, select bank0
  1366  0D3F  1086               	bcf	6,1	;volatile
  1367  0D40                     l126:
  1368  0D40  1D06               	btfss	6,2	;volatile
  1369  0D41  2D43               	goto	u4621
  1370  0D42  2D44               	goto	u4620
  1371  0D43                     u4621:
  1372  0D43  2D40               	goto	l126
  1373  0D44                     u4620:
  1374  0D44                     l128:
  1375  0D44  1410               	bsf	16,0	;volatile
  1376  0D45                     l129:
  1377  0D45  1906               	btfsc	6,2	;volatile
  1378  0D46  2D48               	goto	u4631
  1379  0D47  2D49               	goto	u4630
  1380  0D48                     u4631:
  1381  0D48  2D45               	goto	l129
  1382  0D49                     u4630:
  1383  0D49                     l131:
  1384  0D49  1010               	bcf	16,0	;volatile
  1385  0D4A                     l2945:
  1386  0D4A  080F               	movf	15,w	;volatile
  1387  0D4B  1683               	bsf	3,5	;RP0=1, select bank1
  1388  0D4C  1303               	bcf	3,6	;RP1=0, select bank1
  1389  0D4D  00BF               	movwf	(_time_taken+1)^(0+128)
  1390  0D4E  1283               	bcf	3,5	;RP0=0, select bank0
  1391  0D4F  1303               	bcf	3,6	;RP1=0, select bank0
  1392  0D50  080E               	movf	14,w	;volatile
  1393  0D51  1683               	bsf	3,5	;RP0=1, select bank1
  1394  0D52  1303               	bcf	3,6	;RP1=0, select bank1
  1395  0D53  00BE               	movwf	_time_taken^(0+128)
  1396  0D54                     l2947:
  1397  0D54  083E               	movf	_time_taken^(0+128),w
  1398  0D55  1283               	bcf	3,5	;RP0=0, select bank0
  1399  0D56  1303               	bcf	3,6	;RP1=0, select bank0
  1400  0D57  00A0               	movwf	___xxtofl@val
  1401  0D58  1683               	bsf	3,5	;RP0=1, select bank1
  1402  0D59  1303               	bcf	3,6	;RP1=0, select bank1
  1403  0D5A  083F               	movf	(_time_taken+1)^(0+128),w
  1404  0D5B  1283               	bcf	3,5	;RP0=0, select bank0
  1405  0D5C  1303               	bcf	3,6	;RP1=0, select bank0
  1406  0D5D  00A1               	movwf	___xxtofl@val+1
  1407  0D5E  3000               	movlw	0
  1408  0D5F  1BA1               	btfsc	___xxtofl@val+1,7
  1409  0D60  30FF               	movlw	255
  1410  0D61  00A2               	movwf	___xxtofl@val+2
  1411  0D62  00A3               	movwf	___xxtofl@val+3
  1412  0D63  3001               	movlw	1
  1413  0D64  120A  118A  26EE  120A  158A  	fcall	___xxtofl
  1414  0D69  1283               	bcf	3,5	;RP0=0, select bank0
  1415  0D6A  1303               	bcf	3,6	;RP1=0, select bank0
  1416  0D6B  0823               	movf	?___xxtofl+3,w
  1417  0D6C  00B5               	movwf	___flmul@a+3
  1418  0D6D  0822               	movf	?___xxtofl+2,w
  1419  0D6E  00B4               	movwf	___flmul@a+2
  1420  0D6F  0821               	movf	?___xxtofl+1,w
  1421  0D70  00B3               	movwf	___flmul@a+1
  1422  0D71  0820               	movf	?___xxtofl,w
  1423  0D72  00B2               	movwf	___flmul@a
  1424  0D73  303C               	movlw	60
  1425  0D74  00B1               	movwf	___flmul@b+3
  1426  0D75  30DE               	movlw	222
  1427  0D76  00B0               	movwf	___flmul@b+2
  1428  0D77  30D2               	movlw	210
  1429  0D78  00AF               	movwf	___flmul@b+1
  1430  0D79  3089               	movlw	137
  1431  0D7A  00AE               	movwf	___flmul@b
  1432  0D7B  120A  118A  238D  120A  158A  	fcall	___flmul
  1433  0D80  1283               	bcf	3,5	;RP0=0, select bank0
  1434  0D81  1303               	bcf	3,6	;RP1=0, select bank0
  1435  0D82  0831               	movf	?___flmul+3,w
  1436  0D83  00CF               	movwf	___fldiv@b+3
  1437  0D84  0830               	movf	?___flmul+2,w
  1438  0D85  00CE               	movwf	___fldiv@b+2
  1439  0D86  082F               	movf	?___flmul+1,w
  1440  0D87  00CD               	movwf	___fldiv@b+1
  1441  0D88  082E               	movf	?___flmul,w
  1442  0D89  00CC               	movwf	___fldiv@b
  1443  0D8A  3040               	movlw	64
  1444  0D8B  00CB               	movwf	___fldiv@a+3
  1445  0D8C  3000               	movlw	0
  1446  0D8D  00CA               	movwf	___fldiv@a+2
  1447  0D8E  3000               	movlw	0
  1448  0D8F  00C9               	movwf	___fldiv@a+1
  1449  0D90  3000               	movlw	0
  1450  0D91  00C8               	movwf	___fldiv@a
  1451  0D92  120A  158A  2354  120A  158A  	fcall	___fldiv
  1452  0D97  1283               	bcf	3,5	;RP0=0, select bank0
  1453  0D98  1303               	bcf	3,6	;RP1=0, select bank0
  1454  0D99  084B               	movf	?___fldiv+3,w
  1455  0D9A  00E9               	movwf	___fladd@a+3
  1456  0D9B  084A               	movf	?___fldiv+2,w
  1457  0D9C  00E8               	movwf	___fladd@a+2
  1458  0D9D  0849               	movf	?___fldiv+1,w
  1459  0D9E  00E7               	movwf	___fladd@a+1
  1460  0D9F  0848               	movf	?___fldiv,w
  1461  0DA0  00E6               	movwf	___fladd@a
  1462  0DA1  3040               	movlw	64
  1463  0DA2  00E5               	movwf	___fladd@b+3
  1464  0DA3  3000               	movlw	0
  1465  0DA4  00E4               	movwf	___fladd@b+2
  1466  0DA5  3000               	movlw	0
  1467  0DA6  00E3               	movwf	___fladd@b+1
  1468  0DA7  3000               	movlw	0
  1469  0DA8  00E2               	movwf	___fladd@b
  1470  0DA9  120A  118A  2027  120A  158A  	fcall	___fladd
  1471  0DAE  1283               	bcf	3,5	;RP0=0, select bank0
  1472  0DAF  1303               	bcf	3,6	;RP1=0, select bank0
  1473  0DB0  0865               	movf	?___fladd+3,w
  1474  0DB1  1683               	bsf	3,5	;RP0=1, select bank1
  1475  0DB2  1303               	bcf	3,6	;RP1=0, select bank1
  1476  0DB3  00CB               	movwf	(___fltol@f1+3)^(0+128)
  1477  0DB4  1283               	bcf	3,5	;RP0=0, select bank0
  1478  0DB5  1303               	bcf	3,6	;RP1=0, select bank0
  1479  0DB6  0864               	movf	?___fladd+2,w
  1480  0DB7  1683               	bsf	3,5	;RP0=1, select bank1
  1481  0DB8  1303               	bcf	3,6	;RP1=0, select bank1
  1482  0DB9  00CA               	movwf	(___fltol@f1+2)^(0+128)
  1483  0DBA  1283               	bcf	3,5	;RP0=0, select bank0
  1484  0DBB  1303               	bcf	3,6	;RP1=0, select bank0
  1485  0DBC  0863               	movf	?___fladd+1,w
  1486  0DBD  1683               	bsf	3,5	;RP0=1, select bank1
  1487  0DBE  1303               	bcf	3,6	;RP1=0, select bank1
  1488  0DBF  00C9               	movwf	(___fltol@f1+1)^(0+128)
  1489  0DC0  1283               	bcf	3,5	;RP0=0, select bank0
  1490  0DC1  1303               	bcf	3,6	;RP1=0, select bank0
  1491  0DC2  0862               	movf	?___fladd,w
  1492  0DC3  1683               	bsf	3,5	;RP0=1, select bank1
  1493  0DC4  1303               	bcf	3,6	;RP1=0, select bank1
  1494  0DC5  00C8               	movwf	___fltol@f1^(0+128)
  1495  0DC6  120A  158A  2132  120A  158A  	fcall	___fltol
  1496  0DCB  1683               	bsf	3,5	;RP0=1, select bank1
  1497  0DCC  1303               	bcf	3,6	;RP1=0, select bank1
  1498  0DCD  0849               	movf	(?___fltol+1)^(0+128),w
  1499  0DCE  00A1               	movwf	(_distance+1)^(0+128)
  1500  0DCF  0848               	movf	?___fltol^(0+128),w
  1501  0DD0  00A0               	movwf	_distance^(0+128)
  1502  0DD1                     l2949:
  1503  0DD1  083E               	movf	_time_taken^(0+128),w
  1504  0DD2  1283               	bcf	3,5	;RP0=0, select bank0
  1505  0DD3  1303               	bcf	3,6	;RP1=0, select bank0
  1506  0DD4  00A0               	movwf	___xxtofl@val
  1507  0DD5  1683               	bsf	3,5	;RP0=1, select bank1
  1508  0DD6  1303               	bcf	3,6	;RP1=0, select bank1
  1509  0DD7  083F               	movf	(_time_taken+1)^(0+128),w
  1510  0DD8  1283               	bcf	3,5	;RP0=0, select bank0
  1511  0DD9  1303               	bcf	3,6	;RP1=0, select bank0
  1512  0DDA  00A1               	movwf	___xxtofl@val+1
  1513  0DDB  3000               	movlw	0
  1514  0DDC  1BA1               	btfsc	___xxtofl@val+1,7
  1515  0DDD  30FF               	movlw	255
  1516  0DDE  00A2               	movwf	___xxtofl@val+2
  1517  0DDF  00A3               	movwf	___xxtofl@val+3
  1518  0DE0  3001               	movlw	1
  1519  0DE1  120A  118A  26EE  120A  158A  	fcall	___xxtofl
  1520  0DE6  1283               	bcf	3,5	;RP0=0, select bank0
  1521  0DE7  1303               	bcf	3,6	;RP1=0, select bank0
  1522  0DE8  0823               	movf	?___xxtofl+3,w
  1523  0DE9  00B5               	movwf	___flmul@a+3
  1524  0DEA  0822               	movf	?___xxtofl+2,w
  1525  0DEB  00B4               	movwf	___flmul@a+2
  1526  0DEC  0821               	movf	?___xxtofl+1,w
  1527  0DED  00B3               	movwf	___flmul@a+1
  1528  0DEE  0820               	movf	?___xxtofl,w
  1529  0DEF  00B2               	movwf	___flmul@a
  1530  0DF0  303F               	movlw	63
  1531  0DF1  00B1               	movwf	___flmul@b+3
  1532  0DF2  304C               	movlw	76
  1533  0DF3  00B0               	movwf	___flmul@b+2
  1534  0DF4  30CC               	movlw	204
  1535  0DF5  00AF               	movwf	___flmul@b+1
  1536  0DF6  30CD               	movlw	205
  1537  0DF7  00AE               	movwf	___flmul@b
  1538  0DF8  120A  118A  238D  120A  158A  	fcall	___flmul
  1539  0DFD  1283               	bcf	3,5	;RP0=0, select bank0
  1540  0DFE  1303               	bcf	3,6	;RP1=0, select bank0
  1541  0DFF  0831               	movf	?___flmul+3,w
  1542  0E00  1683               	bsf	3,5	;RP0=1, select bank1
  1543  0E01  1303               	bcf	3,6	;RP1=0, select bank1
  1544  0E02  00CB               	movwf	(___fltol@f1+3)^(0+128)
  1545  0E03  1283               	bcf	3,5	;RP0=0, select bank0
  1546  0E04  1303               	bcf	3,6	;RP1=0, select bank0
  1547  0E05  0830               	movf	?___flmul+2,w
  1548  0E06  1683               	bsf	3,5	;RP0=1, select bank1
  1549  0E07  1303               	bcf	3,6	;RP1=0, select bank1
  1550  0E08  00CA               	movwf	(___fltol@f1+2)^(0+128)
  1551  0E09  1283               	bcf	3,5	;RP0=0, select bank0
  1552  0E0A  1303               	bcf	3,6	;RP1=0, select bank0
  1553  0E0B  082F               	movf	?___flmul+1,w
  1554  0E0C  1683               	bsf	3,5	;RP0=1, select bank1
  1555  0E0D  1303               	bcf	3,6	;RP1=0, select bank1
  1556  0E0E  00C9               	movwf	(___fltol@f1+1)^(0+128)
  1557  0E0F  1283               	bcf	3,5	;RP0=0, select bank0
  1558  0E10  1303               	bcf	3,6	;RP1=0, select bank0
  1559  0E11  082E               	movf	?___flmul,w
  1560  0E12  1683               	bsf	3,5	;RP0=1, select bank1
  1561  0E13  1303               	bcf	3,6	;RP1=0, select bank1
  1562  0E14  00C8               	movwf	___fltol@f1^(0+128)
  1563  0E15  120A  158A  2132  120A  158A  	fcall	___fltol
  1564  0E1A  1683               	bsf	3,5	;RP0=1, select bank1
  1565  0E1B  1303               	bcf	3,6	;RP1=0, select bank1
  1566  0E1C  0849               	movf	(?___fltol+1)^(0+128),w
  1567  0E1D  00BF               	movwf	(_time_taken+1)^(0+128)
  1568  0E1E  0848               	movf	?___fltol^(0+128),w
  1569  0E1F  00BE               	movwf	_time_taken^(0+128)
  1570  0E20                     l2951:
  1571  0E20  0821               	movf	(_distance+1)^(0+128),w
  1572  0E21  3A80               	xorlw	128
  1573  0E22  00FF               	movwf	btemp+1
  1574  0E23  3080               	movlw	128
  1575  0E24  027F               	subwf	btemp+1,w
  1576  0E25  1D03               	skipz
  1577  0E26  2E29               	goto	u4645
  1578  0E27  3003               	movlw	3
  1579  0E28  0220               	subwf	_distance^(0+128),w
  1580  0E29                     u4645:
  1581  0E29  1C03               	skipc
  1582  0E2A  2E2C               	goto	u4641
  1583  0E2B  2E2D               	goto	u4640
  1584  0E2C                     u4641:
  1585  0E2C  2FDC               	goto	l2993
  1586  0E2D                     u4640:
  1587  0E2D                     l2953:
  1588  0E2D  1683               	bsf	3,5	;RP0=1, select bank1
  1589  0E2E  1303               	bcf	3,6	;RP1=0, select bank1
  1590  0E2F  0821               	movf	(_distance+1)^(0+128),w
  1591  0E30  3A80               	xorlw	128
  1592  0E31  00FF               	movwf	btemp+1
  1593  0E32  3080               	movlw	128
  1594  0E33  027F               	subwf	btemp+1,w
  1595  0E34  1D03               	skipz
  1596  0E35  2E38               	goto	u4655
  1597  0E36  3032               	movlw	50
  1598  0E37  0220               	subwf	_distance^(0+128),w
  1599  0E38                     u4655:
  1600  0E38  1803               	skipnc
  1601  0E39  2E3B               	goto	u4651
  1602  0E3A  2E3C               	goto	u4650
  1603  0E3B                     u4651:
  1604  0E3B  2FDC               	goto	l2993
  1605  0E3C                     u4650:
  1606  0E3C                     l2955:
  1607  0E3C  1683               	bsf	3,5	;RP0=1, select bank1
  1608  0E3D  1303               	bcf	3,6	;RP1=0, select bank1
  1609  0E3E  01BD               	clrf	_f^(0+128)
  1610  0E3F  0ABD               	incf	_f^(0+128),f
  1611  0E40                     l2957:
  1612  0E40  300A               	movlw	10
  1613  0E41  1283               	bcf	3,5	;RP0=0, select bank0
  1614  0E42  1303               	bcf	3,6	;RP1=0, select bank0
  1615  0E43  00A8               	movwf	___awmod@divisor
  1616  0E44  3000               	movlw	0
  1617  0E45  00A9               	movwf	___awmod@divisor+1
  1618  0E46  3064               	movlw	100
  1619  0E47  00A0               	movwf	___awdiv@divisor
  1620  0E48  3000               	movlw	0
  1621  0E49  00A1               	movwf	___awdiv@divisor+1
  1622  0E4A  1683               	bsf	3,5	;RP0=1, select bank1
  1623  0E4B  1303               	bcf	3,6	;RP1=0, select bank1
  1624  0E4C  0821               	movf	(_distance+1)^(0+128),w
  1625  0E4D  1283               	bcf	3,5	;RP0=0, select bank0
  1626  0E4E  1303               	bcf	3,6	;RP1=0, select bank0
  1627  0E4F  00A3               	movwf	___awdiv@dividend+1
  1628  0E50  1683               	bsf	3,5	;RP0=1, select bank1
  1629  0E51  1303               	bcf	3,6	;RP1=0, select bank1
  1630  0E52  0820               	movf	_distance^(0+128),w
  1631  0E53  1283               	bcf	3,5	;RP0=0, select bank0
  1632  0E54  1303               	bcf	3,6	;RP1=0, select bank0
  1633  0E55  00A2               	movwf	___awdiv@dividend
  1634  0E56  120A  158A  20C9  120A  158A  	fcall	___awdiv
  1635  0E5B  1283               	bcf	3,5	;RP0=0, select bank0
  1636  0E5C  1303               	bcf	3,6	;RP1=0, select bank0
  1637  0E5D  0821               	movf	?___awdiv+1,w
  1638  0E5E  00AB               	movwf	___awmod@dividend+1
  1639  0E5F  0820               	movf	?___awdiv,w
  1640  0E60  00AA               	movwf	___awmod@dividend
  1641  0E61  120A  158A  2008  120A  158A  	fcall	___awmod
  1642  0E66  1283               	bcf	3,5	;RP0=0, select bank0
  1643  0E67  1303               	bcf	3,6	;RP1=0, select bank0
  1644  0E68  0828               	movf	?___awmod,w
  1645  0E69  1683               	bsf	3,5	;RP0=1, select bank1
  1646  0E6A  1303               	bcf	3,6	;RP1=0, select bank1
  1647  0E6B  00D3               	movwf	??_dista_cal^(0+128)
  1648  0E6C  0853               	movf	??_dista_cal^(0+128),w
  1649  0E6D  00BC               	movwf	_d1^(0+128)
  1650  0E6E  300A               	movlw	10
  1651  0E6F  1283               	bcf	3,5	;RP0=0, select bank0
  1652  0E70  1303               	bcf	3,6	;RP1=0, select bank0
  1653  0E71  00A8               	movwf	___awmod@divisor
  1654  0E72  3000               	movlw	0
  1655  0E73  00A9               	movwf	___awmod@divisor+1
  1656  0E74  300A               	movlw	10
  1657  0E75  00A0               	movwf	___awdiv@divisor
  1658  0E76  3000               	movlw	0
  1659  0E77  00A1               	movwf	___awdiv@divisor+1
  1660  0E78  1683               	bsf	3,5	;RP0=1, select bank1
  1661  0E79  1303               	bcf	3,6	;RP1=0, select bank1
  1662  0E7A  0821               	movf	(_distance+1)^(0+128),w
  1663  0E7B  1283               	bcf	3,5	;RP0=0, select bank0
  1664  0E7C  1303               	bcf	3,6	;RP1=0, select bank0
  1665  0E7D  00A3               	movwf	___awdiv@dividend+1
  1666  0E7E  1683               	bsf	3,5	;RP0=1, select bank1
  1667  0E7F  1303               	bcf	3,6	;RP1=0, select bank1
  1668  0E80  0820               	movf	_distance^(0+128),w
  1669  0E81  1283               	bcf	3,5	;RP0=0, select bank0
  1670  0E82  1303               	bcf	3,6	;RP1=0, select bank0
  1671  0E83  00A2               	movwf	___awdiv@dividend
  1672  0E84  120A  158A  20C9  120A  158A  	fcall	___awdiv
  1673  0E89  1283               	bcf	3,5	;RP0=0, select bank0
  1674  0E8A  1303               	bcf	3,6	;RP1=0, select bank0
  1675  0E8B  0821               	movf	?___awdiv+1,w
  1676  0E8C  00AB               	movwf	___awmod@dividend+1
  1677  0E8D  0820               	movf	?___awdiv,w
  1678  0E8E  00AA               	movwf	___awmod@dividend
  1679  0E8F  120A  158A  2008  120A  158A  	fcall	___awmod
  1680  0E94  1283               	bcf	3,5	;RP0=0, select bank0
  1681  0E95  1303               	bcf	3,6	;RP1=0, select bank0
  1682  0E96  0828               	movf	?___awmod,w
  1683  0E97  1683               	bsf	3,5	;RP0=1, select bank1
  1684  0E98  1303               	bcf	3,6	;RP1=0, select bank1
  1685  0E99  00D3               	movwf	??_dista_cal^(0+128)
  1686  0E9A  0853               	movf	??_dista_cal^(0+128),w
  1687  0E9B  00BB               	movwf	_d2^(0+128)
  1688  0E9C  300A               	movlw	10
  1689  0E9D  1283               	bcf	3,5	;RP0=0, select bank0
  1690  0E9E  1303               	bcf	3,6	;RP1=0, select bank0
  1691  0E9F  00A8               	movwf	___awmod@divisor
  1692  0EA0  3000               	movlw	0
  1693  0EA1  00A9               	movwf	___awmod@divisor+1
  1694  0EA2  1683               	bsf	3,5	;RP0=1, select bank1
  1695  0EA3  1303               	bcf	3,6	;RP1=0, select bank1
  1696  0EA4  0821               	movf	(_distance+1)^(0+128),w
  1697  0EA5  1283               	bcf	3,5	;RP0=0, select bank0
  1698  0EA6  1303               	bcf	3,6	;RP1=0, select bank0
  1699  0EA7  00AB               	movwf	___awmod@dividend+1
  1700  0EA8  1683               	bsf	3,5	;RP0=1, select bank1
  1701  0EA9  1303               	bcf	3,6	;RP1=0, select bank1
  1702  0EAA  0820               	movf	_distance^(0+128),w
  1703  0EAB  1283               	bcf	3,5	;RP0=0, select bank0
  1704  0EAC  1303               	bcf	3,6	;RP1=0, select bank0
  1705  0EAD  00AA               	movwf	___awmod@dividend
  1706  0EAE  120A  158A  2008  120A  158A  	fcall	___awmod
  1707  0EB3  1283               	bcf	3,5	;RP0=0, select bank0
  1708  0EB4  1303               	bcf	3,6	;RP1=0, select bank0
  1709  0EB5  0828               	movf	?___awmod,w
  1710  0EB6  1683               	bsf	3,5	;RP0=1, select bank1
  1711  0EB7  1303               	bcf	3,6	;RP1=0, select bank1
  1712  0EB8  00D3               	movwf	??_dista_cal^(0+128)
  1713  0EB9  0853               	movf	??_dista_cal^(0+128),w
  1714  0EBA  00BA               	movwf	_d3^(0+128)
  1715  0EBB  3001               	movlw	1
  1716  0EBC  160A  118A  2773  120A  158A  	fcall	_lcdcmd
  1717  0EC1  3080               	movlw	128
  1718  0EC2  160A  118A  2773  120A  158A  	fcall	_lcdcmd
  1719  0EC7                     l2959:
  1720  0EC7  3001               	movlw	(low ((STR_1-__stringbase)| (0+32768)))& (0+255)
  1721  0EC8  160A  118A  27B4  120A  158A  	fcall	_lcdstring
  1722  0ECD                     l2961:
  1723  0ECD  3003               	movlw	3
  1724  0ECE  1683               	bsf	3,5	;RP0=1, select bank1
  1725  0ECF  1303               	bcf	3,6	;RP1=0, select bank1
  1726  0ED0  00D5               	movwf	(??_dista_cal^(0+128)+2)
  1727  0ED1  308A               	movlw	138
  1728  0ED2  00D4               	movwf	(??_dista_cal^(0+128)+1)
  1729  0ED3  3055               	movlw	85
  1730  0ED4  00D3               	movwf	??_dista_cal^(0+128)
  1731  0ED5                     u4737:
  1732  0ED5  0BD3               	decfsz	??_dista_cal^(0+128),f
  1733  0ED6  2ED5               	goto	u4737
  1734  0ED7  0BD4               	decfsz	(??_dista_cal^(0+128)+1),f
  1735  0ED8  2ED5               	goto	u4737
  1736  0ED9  0BD5               	decfsz	(??_dista_cal^(0+128)+2),f
  1737  0EDA  2ED5               	goto	u4737
  1738  0EDB                     l2963:
  1739  0EDB  3001               	movlw	1
  1740  0EDC  160A  118A  2773  120A  158A  	fcall	_lcdcmd
  1741  0EE1                     l2965:
  1742  0EE1  3064               	movlw	100
  1743  0EE2  1283               	bcf	3,5	;RP0=0, select bank0
  1744  0EE3  1303               	bcf	3,6	;RP1=0, select bank0
  1745  0EE4  00A0               	movwf	___awdiv@divisor
  1746  0EE5  3000               	movlw	0
  1747  0EE6  00A1               	movwf	___awdiv@divisor+1
  1748  0EE7  1683               	bsf	3,5	;RP0=1, select bank1
  1749  0EE8  1303               	bcf	3,6	;RP1=0, select bank1
  1750  0EE9  082D               	movf	(_angle+1)^(0+128),w
  1751  0EEA  1283               	bcf	3,5	;RP0=0, select bank0
  1752  0EEB  1303               	bcf	3,6	;RP1=0, select bank0
  1753  0EEC  00A3               	movwf	___awdiv@dividend+1
  1754  0EED  1683               	bsf	3,5	;RP0=1, select bank1
  1755  0EEE  1303               	bcf	3,6	;RP1=0, select bank1
  1756  0EEF  082C               	movf	_angle^(0+128),w
  1757  0EF0  1283               	bcf	3,5	;RP0=0, select bank0
  1758  0EF1  1303               	bcf	3,6	;RP1=0, select bank0
  1759  0EF2  00A2               	movwf	___awdiv@dividend
  1760  0EF3  120A  158A  20C9  120A  158A  	fcall	___awdiv
  1761  0EF8  1283               	bcf	3,5	;RP0=0, select bank0
  1762  0EF9  1303               	bcf	3,6	;RP1=0, select bank0
  1763  0EFA  0821               	movf	?___awdiv+1,w
  1764  0EFB  1683               	bsf	3,5	;RP0=1, select bank1
  1765  0EFC  1303               	bcf	3,6	;RP1=0, select bank1
  1766  0EFD  00A9               	movwf	(_A1+1)^(0+128)
  1767  0EFE  1283               	bcf	3,5	;RP0=0, select bank0
  1768  0EFF  1303               	bcf	3,6	;RP1=0, select bank0
  1769  0F00  0820               	movf	?___awdiv,w
  1770  0F01  1683               	bsf	3,5	;RP0=1, select bank1
  1771  0F02  1303               	bcf	3,6	;RP1=0, select bank1
  1772  0F03  00A8               	movwf	_A1^(0+128)
  1773  0F04                     l2967:
  1774  0F04  3064               	movlw	100
  1775  0F05  1283               	bcf	3,5	;RP0=0, select bank0
  1776  0F06  1303               	bcf	3,6	;RP1=0, select bank0
  1777  0F07  00A8               	movwf	___awmod@divisor
  1778  0F08  3000               	movlw	0
  1779  0F09  00A9               	movwf	___awmod@divisor+1
  1780  0F0A  1683               	bsf	3,5	;RP0=1, select bank1
  1781  0F0B  1303               	bcf	3,6	;RP1=0, select bank1
  1782  0F0C  082D               	movf	(_angle+1)^(0+128),w
  1783  0F0D  1283               	bcf	3,5	;RP0=0, select bank0
  1784  0F0E  1303               	bcf	3,6	;RP1=0, select bank0
  1785  0F0F  00AB               	movwf	___awmod@dividend+1
  1786  0F10  1683               	bsf	3,5	;RP0=1, select bank1
  1787  0F11  1303               	bcf	3,6	;RP1=0, select bank1
  1788  0F12  082C               	movf	_angle^(0+128),w
  1789  0F13  1283               	bcf	3,5	;RP0=0, select bank0
  1790  0F14  1303               	bcf	3,6	;RP1=0, select bank0
  1791  0F15  00AA               	movwf	___awmod@dividend
  1792  0F16  120A  158A  2008  120A  158A  	fcall	___awmod
  1793  0F1B  1283               	bcf	3,5	;RP0=0, select bank0
  1794  0F1C  1303               	bcf	3,6	;RP1=0, select bank0
  1795  0F1D  0829               	movf	?___awmod+1,w
  1796  0F1E  1683               	bsf	3,5	;RP0=1, select bank1
  1797  0F1F  1303               	bcf	3,6	;RP1=0, select bank1
  1798  0F20  00D9               	movwf	(dista_cal@p+1)^(0+128)
  1799  0F21  1283               	bcf	3,5	;RP0=0, select bank0
  1800  0F22  1303               	bcf	3,6	;RP1=0, select bank0
  1801  0F23  0828               	movf	?___awmod,w
  1802  0F24  1683               	bsf	3,5	;RP0=1, select bank1
  1803  0F25  1303               	bcf	3,6	;RP1=0, select bank1
  1804  0F26  00D8               	movwf	dista_cal@p^(0+128)
  1805  0F27                     l2969:
  1806  0F27  300A               	movlw	10
  1807  0F28  1283               	bcf	3,5	;RP0=0, select bank0
  1808  0F29  1303               	bcf	3,6	;RP1=0, select bank0
  1809  0F2A  00A0               	movwf	___awdiv@divisor
  1810  0F2B  3000               	movlw	0
  1811  0F2C  00A1               	movwf	___awdiv@divisor+1
  1812  0F2D  1683               	bsf	3,5	;RP0=1, select bank1
  1813  0F2E  1303               	bcf	3,6	;RP1=0, select bank1
  1814  0F2F  0859               	movf	(dista_cal@p+1)^(0+128),w
  1815  0F30  1283               	bcf	3,5	;RP0=0, select bank0
  1816  0F31  1303               	bcf	3,6	;RP1=0, select bank0
  1817  0F32  00A3               	movwf	___awdiv@dividend+1
  1818  0F33  1683               	bsf	3,5	;RP0=1, select bank1
  1819  0F34  1303               	bcf	3,6	;RP1=0, select bank1
  1820  0F35  0858               	movf	dista_cal@p^(0+128),w
  1821  0F36  1283               	bcf	3,5	;RP0=0, select bank0
  1822  0F37  1303               	bcf	3,6	;RP1=0, select bank0
  1823  0F38  00A2               	movwf	___awdiv@dividend
  1824  0F39  120A  158A  20C9  120A  158A  	fcall	___awdiv
  1825  0F3E  1283               	bcf	3,5	;RP0=0, select bank0
  1826  0F3F  1303               	bcf	3,6	;RP1=0, select bank0
  1827  0F40  0821               	movf	?___awdiv+1,w
  1828  0F41  1683               	bsf	3,5	;RP0=1, select bank1
  1829  0F42  1303               	bcf	3,6	;RP1=0, select bank1
  1830  0F43  00A7               	movwf	(_A2+1)^(0+128)
  1831  0F44  1283               	bcf	3,5	;RP0=0, select bank0
  1832  0F45  1303               	bcf	3,6	;RP1=0, select bank0
  1833  0F46  0820               	movf	?___awdiv,w
  1834  0F47  1683               	bsf	3,5	;RP0=1, select bank1
  1835  0F48  1303               	bcf	3,6	;RP1=0, select bank1
  1836  0F49  00A6               	movwf	_A2^(0+128)
  1837  0F4A                     l2971:
  1838  0F4A  300A               	movlw	10
  1839  0F4B  1283               	bcf	3,5	;RP0=0, select bank0
  1840  0F4C  1303               	bcf	3,6	;RP1=0, select bank0
  1841  0F4D  00A8               	movwf	___awmod@divisor
  1842  0F4E  3000               	movlw	0
  1843  0F4F  00A9               	movwf	___awmod@divisor+1
  1844  0F50  1683               	bsf	3,5	;RP0=1, select bank1
  1845  0F51  1303               	bcf	3,6	;RP1=0, select bank1
  1846  0F52  0859               	movf	(dista_cal@p+1)^(0+128),w
  1847  0F53  1283               	bcf	3,5	;RP0=0, select bank0
  1848  0F54  1303               	bcf	3,6	;RP1=0, select bank0
  1849  0F55  00AB               	movwf	___awmod@dividend+1
  1850  0F56  1683               	bsf	3,5	;RP0=1, select bank1
  1851  0F57  1303               	bcf	3,6	;RP1=0, select bank1
  1852  0F58  0858               	movf	dista_cal@p^(0+128),w
  1853  0F59  1283               	bcf	3,5	;RP0=0, select bank0
  1854  0F5A  1303               	bcf	3,6	;RP1=0, select bank0
  1855  0F5B  00AA               	movwf	___awmod@dividend
  1856  0F5C  120A  158A  2008  120A  158A  	fcall	___awmod
  1857  0F61  1283               	bcf	3,5	;RP0=0, select bank0
  1858  0F62  1303               	bcf	3,6	;RP1=0, select bank0
  1859  0F63  0829               	movf	?___awmod+1,w
  1860  0F64  1683               	bsf	3,5	;RP0=1, select bank1
  1861  0F65  1303               	bcf	3,6	;RP1=0, select bank1
  1862  0F66  00D7               	movwf	(dista_cal@n+1)^(0+128)
  1863  0F67  1283               	bcf	3,5	;RP0=0, select bank0
  1864  0F68  1303               	bcf	3,6	;RP1=0, select bank0
  1865  0F69  0828               	movf	?___awmod,w
  1866  0F6A  1683               	bsf	3,5	;RP0=1, select bank1
  1867  0F6B  1303               	bcf	3,6	;RP1=0, select bank1
  1868  0F6C  00D6               	movwf	dista_cal@n^(0+128)
  1869  0F6D                     l2973:
  1870  0F6D  0857               	movf	(dista_cal@n+1)^(0+128),w
  1871  0F6E  00A5               	movwf	(_A3+1)^(0+128)
  1872  0F6F  0856               	movf	dista_cal@n^(0+128),w
  1873  0F70  00A4               	movwf	_A3^(0+128)
  1874  0F71                     l2975:
  1875  0F71  3080               	movlw	128
  1876  0F72  160A  118A  2773  120A  158A  	fcall	_lcdcmd
  1877  0F77                     l2977:
  1878  0F77  304E               	movlw	(low ((STR_2-__stringbase)| (0+32768)))& (0+255)
  1879  0F78  160A  118A  27B4  120A  158A  	fcall	_lcdstring
  1880  0F7D  1683               	bsf	3,5	;RP0=1, select bank1
  1881  0F7E  1303               	bcf	3,6	;RP1=0, select bank1
  1882  0F7F  083C               	movf	_d1^(0+128),w
  1883  0F80  3E30               	addlw	48
  1884  0F81  160A  118A  277F  120A  158A  	fcall	_lcddat
  1885  0F86  1683               	bsf	3,5	;RP0=1, select bank1
  1886  0F87  1303               	bcf	3,6	;RP1=0, select bank1
  1887  0F88  083B               	movf	_d2^(0+128),w
  1888  0F89  3E30               	addlw	48
  1889  0F8A  160A  118A  277F  120A  158A  	fcall	_lcddat
  1890  0F8F  1683               	bsf	3,5	;RP0=1, select bank1
  1891  0F90  1303               	bcf	3,6	;RP1=0, select bank1
  1892  0F91  083A               	movf	_d3^(0+128),w
  1893  0F92  3E30               	addlw	48
  1894  0F93  160A  118A  277F  120A  158A  	fcall	_lcddat
  1895  0F98                     l2979:
  1896  0F98  3003               	movlw	3
  1897  0F99  1683               	bsf	3,5	;RP0=1, select bank1
  1898  0F9A  1303               	bcf	3,6	;RP1=0, select bank1
  1899  0F9B  00D5               	movwf	(??_dista_cal^(0+128)+2)
  1900  0F9C  308A               	movlw	138
  1901  0F9D  00D4               	movwf	(??_dista_cal^(0+128)+1)
  1902  0F9E  3055               	movlw	85
  1903  0F9F  00D3               	movwf	??_dista_cal^(0+128)
  1904  0FA0                     u4747:
  1905  0FA0  0BD3               	decfsz	??_dista_cal^(0+128),f
  1906  0FA1  2FA0               	goto	u4747
  1907  0FA2  0BD4               	decfsz	(??_dista_cal^(0+128)+1),f
  1908  0FA3  2FA0               	goto	u4747
  1909  0FA4  0BD5               	decfsz	(??_dista_cal^(0+128)+2),f
  1910  0FA5  2FA0               	goto	u4747
  1911  0FA6                     l2981:
  1912  0FA6  30C0               	movlw	192
  1913  0FA7  160A  118A  2773  120A  158A  	fcall	_lcdcmd
  1914  0FAC                     l2983:
  1915  0FAC  3058               	movlw	(low ((STR_3-__stringbase)| (0+32768)))& (0+255)
  1916  0FAD  160A  118A  27B4  120A  158A  	fcall	_lcdstring
  1917  0FB2                     l2985:
  1918  0FB2  1683               	bsf	3,5	;RP0=1, select bank1
  1919  0FB3  1303               	bcf	3,6	;RP1=0, select bank1
  1920  0FB4  0828               	movf	_A1^(0+128),w
  1921  0FB5  3E30               	addlw	48
  1922  0FB6  160A  118A  277F  120A  158A  	fcall	_lcddat
  1923  0FBB                     l2987:
  1924  0FBB  1683               	bsf	3,5	;RP0=1, select bank1
  1925  0FBC  1303               	bcf	3,6	;RP1=0, select bank1
  1926  0FBD  0826               	movf	_A2^(0+128),w
  1927  0FBE  3E30               	addlw	48
  1928  0FBF  160A  118A  277F  120A  158A  	fcall	_lcddat
  1929  0FC4                     l2989:
  1930  0FC4  1683               	bsf	3,5	;RP0=1, select bank1
  1931  0FC5  1303               	bcf	3,6	;RP1=0, select bank1
  1932  0FC6  0824               	movf	_A3^(0+128),w
  1933  0FC7  3E30               	addlw	48
  1934  0FC8  160A  118A  277F  120A  158A  	fcall	_lcddat
  1935  0FCD                     l2991:
  1936  0FCD  3006               	movlw	6
  1937  0FCE  1683               	bsf	3,5	;RP0=1, select bank1
  1938  0FCF  1303               	bcf	3,6	;RP1=0, select bank1
  1939  0FD0  00D5               	movwf	(??_dista_cal^(0+128)+2)
  1940  0FD1  3013               	movlw	19
  1941  0FD2  00D4               	movwf	(??_dista_cal^(0+128)+1)
  1942  0FD3  30AD               	movlw	173
  1943  0FD4  00D3               	movwf	??_dista_cal^(0+128)
  1944  0FD5                     u4757:
  1945  0FD5  0BD3               	decfsz	??_dista_cal^(0+128),f
  1946  0FD6  2FD5               	goto	u4757
  1947  0FD7  0BD4               	decfsz	(??_dista_cal^(0+128)+1),f
  1948  0FD8  2FD5               	goto	u4757
  1949  0FD9  0BD5               	decfsz	(??_dista_cal^(0+128)+2),f
  1950  0FDA  2FD5               	goto	u4757
  1951  0FDB  2FFF               	goto	l134
  1952  0FDC                     l2993:
  1953  0FDC  1683               	bsf	3,5	;RP0=1, select bank1
  1954  0FDD  1303               	bcf	3,6	;RP1=0, select bank1
  1955  0FDE  01BD               	clrf	_f^(0+128)
  1956  0FDF                     l2995:
  1957  0FDF  3001               	movlw	1
  1958  0FE0  160A  118A  2773  120A  158A  	fcall	_lcdcmd
  1959  0FE5                     l2997:
  1960  0FE5  3080               	movlw	128
  1961  0FE6  160A  118A  2773  120A  158A  	fcall	_lcdcmd
  1962  0FEB                     l2999:
  1963  0FEB  3042               	movlw	(low ((STR_4-__stringbase)| (0+32768)))& (0+255)
  1964  0FEC  160A  118A  27B4  120A  158A  	fcall	_lcdstring
  1965  0FF1                     l3001:
  1966  0FF1  3003               	movlw	3
  1967  0FF2  1683               	bsf	3,5	;RP0=1, select bank1
  1968  0FF3  1303               	bcf	3,6	;RP1=0, select bank1
  1969  0FF4  00D5               	movwf	(??_dista_cal^(0+128)+2)
  1970  0FF5  308A               	movlw	138
  1971  0FF6  00D4               	movwf	(??_dista_cal^(0+128)+1)
  1972  0FF7  3055               	movlw	85
  1973  0FF8  00D3               	movwf	??_dista_cal^(0+128)
  1974  0FF9                     u4767:
  1975  0FF9  0BD3               	decfsz	??_dista_cal^(0+128),f
  1976  0FFA  2FF9               	goto	u4767
  1977  0FFB  0BD4               	decfsz	(??_dista_cal^(0+128)+1),f
  1978  0FFC  2FF9               	goto	u4767
  1979  0FFD  0BD5               	decfsz	(??_dista_cal^(0+128)+2),f
  1980  0FFE  2FF9               	goto	u4767
  1981  0FFF                     l134:
  1982  0FFF  0008               	return
  1983  1000                     __end_of_dista_cal:
  1984                           
  1985                           	psect	text3
  1986  17B4                     __ptext3:	
  1987 ;; *************** function _lcdstring *****************
  1988 ;; Defined at:
  1989 ;;		line 120 in file "123mod.c"
  1990 ;; Parameters:    Size  Location     Type
  1991 ;;  s               1    wreg     PTR unsigned char 
  1992 ;;		 -> STR_7(13), STR_6(16), STR_5(18), STR_4(12), 
  1993 ;;		 -> STR_3(8), STR_2(10), STR_1(18), 
  1994 ;; Auto vars:     Size  Location     Type
  1995 ;;  s               1    2[BANK0 ] PTR unsigned char 
  1996 ;;		 -> STR_7(13), STR_6(16), STR_5(18), STR_4(12), 
  1997 ;;		 -> STR_3(8), STR_2(10), STR_1(18), 
  1998 ;; Return value:  Size  Location     Type
  1999 ;;                  1    wreg      void 
  2000 ;; Registers used:
  2001 ;;		wreg, fsr0l, fsr0h, status,2, status,0, pclath, cstack
  2002 ;; Tracked objects:
  2003 ;;		On entry : 0/0
  2004 ;;		On exit  : 0/0
  2005 ;;		Unchanged: 0/0
  2006 ;; Data sizes:     COMMON   BANK0   BANK1   BANK3   BANK2
  2007 ;;      Params:         0       0       0       0       0
  2008 ;;      Locals:         0       1       0       0       0
  2009 ;;      Temps:          0       1       0       0       0
  2010 ;;      Totals:         0       2       0       0       0
  2011 ;;Total ram usage:        2 bytes
  2012 ;; Hardware stack levels used: 1
  2013 ;; Hardware stack levels required when called: 3
  2014 ;; This function calls:
  2015 ;;		_lcddat
  2016 ;; This function is called by:
  2017 ;;		_dista_cal
  2018 ;;		_main
  2019 ;; This function uses a non-reentrant model
  2020 ;;
  2021                           
  2022                           
  2023                           ;psect for function _lcdstring
  2024  17B4                     _lcdstring:
  2025                           
  2026                           ;incstack = 0
  2027                           ; Regs used in _lcdstring: [wreg-fsr0h+status,2+status,0+pclath+cstack]
  2028                           ;lcdstring@s stored from wreg
  2029  17B4  1283               	bcf	3,5	;RP0=0, select bank0
  2030  17B5  1303               	bcf	3,6	;RP1=0, select bank0
  2031  17B6  00A2               	movwf	lcdstring@s
  2032  17B7                     l2471:
  2033  17B7  2FCA               	goto	l2477
  2034  17B8                     l2473:
  2035  17B8  0822               	movf	lcdstring@s,w
  2036  17B9  0084               	movwf	4
  2037  17BA  160A  118A  2000  160A  118A  	fcall	stringdir
  2038  17BF  160A  118A  277F  160A  118A  	fcall	_lcddat
  2039  17C4                     l2475:
  2040  17C4  3001               	movlw	1
  2041  17C5  1283               	bcf	3,5	;RP0=0, select bank0
  2042  17C6  1303               	bcf	3,6	;RP1=0, select bank0
  2043  17C7  00A1               	movwf	??_lcdstring
  2044  17C8  0821               	movf	??_lcdstring,w
  2045  17C9  07A2               	addwf	lcdstring@s,f
  2046  17CA                     l2477:
  2047  17CA  0822               	movf	lcdstring@s,w
  2048  17CB  0084               	movwf	4
  2049  17CC  160A  118A  2000  160A  118A  	fcall	stringdir
  2050  17D1  3A00               	xorlw	0
  2051  17D2  1D03               	skipz
  2052  17D3  2FD5               	goto	u3441
  2053  17D4  2FD6               	goto	u3440
  2054  17D5                     u3441:
  2055  17D5  2FB8               	goto	l2473
  2056  17D6                     u3440:
  2057  17D6                     l100:
  2058  17D6  0008               	return
  2059  17D7                     __end_of_lcdstring:
  2060                           
  2061                           	psect	text4
  2062  177F                     __ptext4:	
  2063 ;; *************** function _lcddat *****************
  2064 ;; Defined at:
  2065 ;;		line 114 in file "123mod.c"
  2066 ;; Parameters:    Size  Location     Type
  2067 ;;  cmd             1    wreg     unsigned char 
  2068 ;; Auto vars:     Size  Location     Type
  2069 ;;  cmd             1    0[BANK0 ] unsigned char 
  2070 ;; Return value:  Size  Location     Type
  2071 ;;                  1    wreg      void 
  2072 ;; Registers used:
  2073 ;;		wreg, status,2, status,0, pclath, cstack
  2074 ;; Tracked objects:
  2075 ;;		On entry : 0/0
  2076 ;;		On exit  : 0/0
  2077 ;;		Unchanged: 0/0
  2078 ;; Data sizes:     COMMON   BANK0   BANK1   BANK3   BANK2
  2079 ;;      Params:         0       0       0       0       0
  2080 ;;      Locals:         0       1       0       0       0
  2081 ;;      Temps:          0       0       0       0       0
  2082 ;;      Totals:         0       1       0       0       0
  2083 ;;Total ram usage:        1 bytes
  2084 ;; Hardware stack levels used: 1
  2085 ;; Hardware stack levels required when called: 2
  2086 ;; This function calls:
  2087 ;;		_pulse
  2088 ;; This function is called by:
  2089 ;;		_lcdstring
  2090 ;;		_dista_cal
  2091 ;; This function uses a non-reentrant model
  2092 ;;
  2093                           
  2094                           
  2095                           ;psect for function _lcddat
  2096  177F                     _lcddat:
  2097                           
  2098                           ;incstack = 0
  2099                           ; Regs used in _lcddat: [wreg+status,2+status,0+pclath+cstack]
  2100                           ;lcddat@cmd stored from wreg
  2101  177F  1283               	bcf	3,5	;RP0=0, select bank0
  2102  1780  1303               	bcf	3,6	;RP1=0, select bank0
  2103  1781  00A0               	movwf	lcddat@cmd
  2104  1782                     l2445:
  2105  1782  0820               	movf	lcddat@cmd,w
  2106  1783  0088               	movwf	8	;volatile
  2107  1784                     l2447:
  2108  1784  1407               	bsf	7,0	;volatile
  2109  1785                     l2449:
  2110  1785  120A  118A  27ED  160A  118A  	fcall	_pulse
  2111  178A                     l94:
  2112  178A  0008               	return
  2113  178B                     __end_of_lcddat:
  2114                           
  2115                           	psect	text5
  2116  06EE                     __ptext5:	
  2117 ;; *************** function ___xxtofl *****************
  2118 ;; Defined at:
  2119 ;;		line 10 in file "C:\Program Files\Microchip\xc8\v2.32\pic\sources\c90\common\xxtofl.c"
  2120 ;; Parameters:    Size  Location     Type
  2121 ;;  sign            1    wreg     unsigned char 
  2122 ;;  val             4    0[BANK0 ] long 
  2123 ;; Auto vars:     Size  Location     Type
  2124 ;;  sign            1    8[BANK0 ] unsigned char 
  2125 ;;  arg             4   10[BANK0 ] unsigned long 
  2126 ;;  exp             1    9[BANK0 ] unsigned char 
  2127 ;; Return value:  Size  Location     Type
  2128 ;;                  4    0[BANK0 ] unsigned char 
  2129 ;; Registers used:
  2130 ;;		wreg, status,2, status,0
  2131 ;; Tracked objects:
  2132 ;;		On entry : 0/0
  2133 ;;		On exit  : 0/0
  2134 ;;		Unchanged: 0/0
  2135 ;; Data sizes:     COMMON   BANK0   BANK1   BANK3   BANK2
  2136 ;;      Params:         0       4       0       0       0
  2137 ;;      Locals:         0       6       0       0       0
  2138 ;;      Temps:          0       4       0       0       0
  2139 ;;      Totals:         0      14       0       0       0
  2140 ;;Total ram usage:       14 bytes
  2141 ;; Hardware stack levels used: 1
  2142 ;; Hardware stack levels required when called: 1
  2143 ;; This function calls:
  2144 ;;		Nothing
  2145 ;; This function is called by:
  2146 ;;		_dista_cal
  2147 ;;		_servo
  2148 ;; This function uses a non-reentrant model
  2149 ;;
  2150                           
  2151                           
  2152                           ;psect for function ___xxtofl
  2153  06EE                     ___xxtofl:
  2154                           
  2155                           ;incstack = 0
  2156                           ; Regs used in ___xxtofl: [wreg+status,2+status,0]
  2157                           ;___xxtofl@sign stored from wreg
  2158  06EE  1283               	bcf	3,5	;RP0=0, select bank0
  2159  06EF  1303               	bcf	3,6	;RP1=0, select bank0
  2160  06F0  00A8               	movwf	___xxtofl@sign
  2161  06F1                     l2893:
  2162  06F1  0828               	movf	___xxtofl@sign,w
  2163  06F2  1903               	btfsc	3,2
  2164  06F3  2EF5               	goto	u4481
  2165  06F4  2EF6               	goto	u4480
  2166  06F5                     u4481:
  2167  06F5  2F0A               	goto	l2899
  2168  06F6                     u4480:
  2169  06F6                     l2895:
  2170  06F6  1FA3               	btfss	___xxtofl@val+3,7
  2171  06F7  2EF9               	goto	u4491
  2172  06F8  2EFA               	goto	u4490
  2173  06F9                     u4491:
  2174  06F9  2F0A               	goto	l2899
  2175  06FA                     u4490:
  2176  06FA                     l2897:
  2177  06FA  0920               	comf	___xxtofl@val,w
  2178  06FB  00AA               	movwf	___xxtofl@arg
  2179  06FC  0921               	comf	___xxtofl@val+1,w
  2180  06FD  00AB               	movwf	___xxtofl@arg+1
  2181  06FE  0922               	comf	___xxtofl@val+2,w
  2182  06FF  00AC               	movwf	___xxtofl@arg+2
  2183  0700  0923               	comf	___xxtofl@val+3,w
  2184  0701  00AD               	movwf	___xxtofl@arg+3
  2185  0702  0AAA               	incf	___xxtofl@arg,f
  2186  0703  1903               	skipnz
  2187  0704  0AAB               	incf	___xxtofl@arg+1,f
  2188  0705  1903               	skipnz
  2189  0706  0AAC               	incf	___xxtofl@arg+2,f
  2190  0707  1903               	skipnz
  2191  0708  0AAD               	incf	___xxtofl@arg+3,f
  2192  0709  2F12               	goto	l672
  2193  070A                     l2899:
  2194  070A  0823               	movf	___xxtofl@val+3,w
  2195  070B  00AD               	movwf	___xxtofl@arg+3
  2196  070C  0822               	movf	___xxtofl@val+2,w
  2197  070D  00AC               	movwf	___xxtofl@arg+2
  2198  070E  0821               	movf	___xxtofl@val+1,w
  2199  070F  00AB               	movwf	___xxtofl@arg+1
  2200  0710  0820               	movf	___xxtofl@val,w
  2201  0711  00AA               	movwf	___xxtofl@arg
  2202  0712                     l672:
  2203  0712  0823               	movf	___xxtofl@val+3,w
  2204  0713  0422               	iorwf	___xxtofl@val+2,w
  2205  0714  0421               	iorwf	___xxtofl@val+1,w
  2206  0715  0420               	iorwf	___xxtofl@val,w
  2207  0716  1D03               	skipz
  2208  0717  2F19               	goto	u4501
  2209  0718  2F1A               	goto	u4500
  2210  0719                     u4501:
  2211  0719  2F23               	goto	l2905
  2212  071A                     u4500:
  2213  071A                     l2901:
  2214  071A  3000               	movlw	0
  2215  071B  00A3               	movwf	?___xxtofl+3
  2216  071C  3000               	movlw	0
  2217  071D  00A2               	movwf	?___xxtofl+2
  2218  071E  3000               	movlw	0
  2219  071F  00A1               	movwf	?___xxtofl+1
  2220  0720  3000               	movlw	0
  2221  0721  00A0               	movwf	?___xxtofl
  2222  0722  2FA9               	goto	l674
  2223  0723                     l2905:
  2224  0723  3096               	movlw	150
  2225  0724  00A4               	movwf	??___xxtofl
  2226  0725  0824               	movf	??___xxtofl,w
  2227  0726  00A9               	movwf	___xxtofl@exp
  2228  0727  2F35               	goto	l2909
  2229  0728                     l2907:
  2230  0728  3001               	movlw	1
  2231  0729  00A4               	movwf	??___xxtofl
  2232  072A  0824               	movf	??___xxtofl,w
  2233  072B  07A9               	addwf	___xxtofl@exp,f
  2234  072C  3001               	movlw	1
  2235  072D                     u4515:
  2236  072D  1003               	clrc
  2237  072E  0CAD               	rrf	___xxtofl@arg+3,f
  2238  072F  0CAC               	rrf	___xxtofl@arg+2,f
  2239  0730  0CAB               	rrf	___xxtofl@arg+1,f
  2240  0731  0CAA               	rrf	___xxtofl@arg,f
  2241  0732  3EFF               	addlw	-1
  2242  0733  1D03               	skipz
  2243  0734  2F2D               	goto	u4515
  2244  0735                     l2909:
  2245  0735  30FE               	movlw	254
  2246  0736  052D               	andwf	___xxtofl@arg+3,w
  2247  0737  1D03               	btfss	3,2
  2248  0738  2F3A               	goto	u4521
  2249  0739  2F3B               	goto	u4520
  2250  073A                     u4521:
  2251  073A  2F28               	goto	l2907
  2252  073B                     u4520:
  2253  073B  2F57               	goto	l678
  2254  073C                     l2911:
  2255  073C  3001               	movlw	1
  2256  073D  00A4               	movwf	??___xxtofl
  2257  073E  0824               	movf	??___xxtofl,w
  2258  073F  07A9               	addwf	___xxtofl@exp,f
  2259  0740                     l2913:
  2260  0740  3001               	movlw	1
  2261  0741  07AA               	addwf	___xxtofl@arg,f
  2262  0742  3000               	movlw	0
  2263  0743  1803               	skipnc
  2264  0744  3001               	movlw	1
  2265  0745  07AB               	addwf	___xxtofl@arg+1,f
  2266  0746  3000               	movlw	0
  2267  0747  1803               	skipnc
  2268  0748  3001               	movlw	1
  2269  0749  07AC               	addwf	___xxtofl@arg+2,f
  2270  074A  3000               	movlw	0
  2271  074B  1803               	skipnc
  2272  074C  3001               	movlw	1
  2273  074D  07AD               	addwf	___xxtofl@arg+3,f
  2274  074E                     l2915:
  2275  074E  3001               	movlw	1
  2276  074F                     u4535:
  2277  074F  1003               	clrc
  2278  0750  0CAD               	rrf	___xxtofl@arg+3,f
  2279  0751  0CAC               	rrf	___xxtofl@arg+2,f
  2280  0752  0CAB               	rrf	___xxtofl@arg+1,f
  2281  0753  0CAA               	rrf	___xxtofl@arg,f
  2282  0754  3EFF               	addlw	-1
  2283  0755  1D03               	skipz
  2284  0756  2F4F               	goto	u4535
  2285  0757                     l678:
  2286  0757  30FF               	movlw	255
  2287  0758  052D               	andwf	___xxtofl@arg+3,w
  2288  0759  1D03               	btfss	3,2
  2289  075A  2F5C               	goto	u4541
  2290  075B  2F5D               	goto	u4540
  2291  075C                     u4541:
  2292  075C  2F3C               	goto	l2911
  2293  075D                     u4540:
  2294  075D  2F69               	goto	l2919
  2295  075E                     l2917:
  2296  075E  3001               	movlw	1
  2297  075F  02A9               	subwf	___xxtofl@exp,f
  2298  0760  3001               	movlw	1
  2299  0761  00A4               	movwf	??___xxtofl
  2300  0762                     u4555:
  2301  0762  1003               	clrc
  2302  0763  0DAA               	rlf	___xxtofl@arg,f
  2303  0764  0DAB               	rlf	___xxtofl@arg+1,f
  2304  0765  0DAC               	rlf	___xxtofl@arg+2,f
  2305  0766  0DAD               	rlf	___xxtofl@arg+3,f
  2306  0767  0BA4               	decfsz	??___xxtofl,f
  2307  0768  2F62               	goto	u4555
  2308  0769                     l2919:
  2309  0769  1BAC               	btfsc	___xxtofl@arg+2,7
  2310  076A  2F6C               	goto	u4561
  2311  076B  2F6D               	goto	u4560
  2312  076C                     u4561:
  2313  076C  2F73               	goto	l685
  2314  076D                     u4560:
  2315  076D                     l2921:
  2316  076D  3002               	movlw	2
  2317  076E  0229               	subwf	___xxtofl@exp,w
  2318  076F  1803               	skipnc
  2319  0770  2F72               	goto	u4571
  2320  0771  2F73               	goto	u4570
  2321  0772                     u4571:
  2322  0772  2F5E               	goto	l2917
  2323  0773                     u4570:
  2324  0773                     l685:
  2325  0773  1829               	btfsc	___xxtofl@exp,0
  2326  0774  2F76               	goto	u4581
  2327  0775  2F77               	goto	u4580
  2328  0776                     u4581:
  2329  0776  2F7F               	goto	l686
  2330  0777                     u4580:
  2331  0777                     l2923:
  2332  0777  30FF               	movlw	255
  2333  0778  05AA               	andwf	___xxtofl@arg,f
  2334  0779  30FF               	movlw	255
  2335  077A  05AB               	andwf	___xxtofl@arg+1,f
  2336  077B  307F               	movlw	127
  2337  077C  05AC               	andwf	___xxtofl@arg+2,f
  2338  077D  30FF               	movlw	255
  2339  077E  05AD               	andwf	___xxtofl@arg+3,f
  2340  077F                     l686:
  2341  077F  1003               	clrc
  2342  0780  0CA9               	rrf	___xxtofl@exp,f
  2343  0781                     l2925:
  2344  0781  0829               	movf	___xxtofl@exp,w
  2345  0782  00A4               	movwf	??___xxtofl
  2346  0783  01A5               	clrf	??___xxtofl+1
  2347  0784  01A6               	clrf	??___xxtofl+2
  2348  0785  01A7               	clrf	??___xxtofl+3
  2349  0786  3018               	movlw	24
  2350  0787                     u4595:
  2351  0787  1003               	clrc
  2352  0788  0DA4               	rlf	??___xxtofl,f
  2353  0789  0DA5               	rlf	??___xxtofl+1,f
  2354  078A  0DA6               	rlf	??___xxtofl+2,f
  2355  078B  0DA7               	rlf	??___xxtofl+3,f
  2356  078C                     u4590:
  2357  078C  3EFF               	addlw	-1
  2358  078D  1D03               	skipz
  2359  078E  2F87               	goto	u4595
  2360  078F  0824               	movf	??___xxtofl,w
  2361  0790  04AA               	iorwf	___xxtofl@arg,f
  2362  0791  0825               	movf	??___xxtofl+1,w
  2363  0792  04AB               	iorwf	___xxtofl@arg+1,f
  2364  0793  0826               	movf	??___xxtofl+2,w
  2365  0794  04AC               	iorwf	___xxtofl@arg+2,f
  2366  0795  0827               	movf	??___xxtofl+3,w
  2367  0796  04AD               	iorwf	___xxtofl@arg+3,f
  2368  0797                     l2927:
  2369  0797  0828               	movf	___xxtofl@sign,w
  2370  0798  1903               	btfsc	3,2
  2371  0799  2F9B               	goto	u4601
  2372  079A  2F9C               	goto	u4600
  2373  079B                     u4601:
  2374  079B  2FA1               	goto	l2933
  2375  079C                     u4600:
  2376  079C                     l2929:
  2377  079C  1FA3               	btfss	___xxtofl@val+3,7
  2378  079D  2F9F               	goto	u4611
  2379  079E  2FA0               	goto	u4610
  2380  079F                     u4611:
  2381  079F  2FA1               	goto	l2933
  2382  07A0                     u4610:
  2383  07A0                     l2931:
  2384  07A0  17AD               	bsf	___xxtofl@arg+3,7
  2385  07A1                     l2933:
  2386  07A1  082D               	movf	___xxtofl@arg+3,w
  2387  07A2  00A3               	movwf	?___xxtofl+3
  2388  07A3  082C               	movf	___xxtofl@arg+2,w
  2389  07A4  00A2               	movwf	?___xxtofl+2
  2390  07A5  082B               	movf	___xxtofl@arg+1,w
  2391  07A6  00A1               	movwf	?___xxtofl+1
  2392  07A7  082A               	movf	___xxtofl@arg,w
  2393  07A8  00A0               	movwf	?___xxtofl
  2394  07A9                     l674:
  2395  07A9  0008               	return
  2396  07AA                     __end_of___xxtofl:
  2397                           
  2398                           	psect	text6
  2399  0932                     __ptext6:	
  2400 ;; *************** function ___fltol *****************
  2401 ;; Defined at:
  2402 ;;		line 43 in file "C:\Program Files\Microchip\xc8\v2.32\pic\sources\c90\common\fltol.c"
  2403 ;; Parameters:    Size  Location     Type
  2404 ;;  f1              4    8[BANK1 ] unsigned char 
  2405 ;; Auto vars:     Size  Location     Type
  2406 ;;  exp1            1   18[BANK1 ] unsigned char 
  2407 ;;  sign1           1   17[BANK1 ] unsigned char 
  2408 ;; Return value:  Size  Location     Type
  2409 ;;                  4    8[BANK1 ] long 
  2410 ;; Registers used:
  2411 ;;		wreg, status,2, status,0
  2412 ;; Tracked objects:
  2413 ;;		On entry : 0/0
  2414 ;;		On exit  : 0/0
  2415 ;;		Unchanged: 0/0
  2416 ;; Data sizes:     COMMON   BANK0   BANK1   BANK3   BANK2
  2417 ;;      Params:         0       0       4       0       0
  2418 ;;      Locals:         0       0       2       0       0
  2419 ;;      Temps:          0       0       5       0       0
  2420 ;;      Totals:         0       0      11       0       0
  2421 ;;Total ram usage:       11 bytes
  2422 ;; Hardware stack levels used: 1
  2423 ;; Hardware stack levels required when called: 1
  2424 ;; This function calls:
  2425 ;;		Nothing
  2426 ;; This function is called by:
  2427 ;;		_dista_cal
  2428 ;;		_servo
  2429 ;; This function uses a non-reentrant model
  2430 ;;
  2431                           
  2432                           
  2433                           ;psect for function ___fltol
  2434  0932                     ___fltol:
  2435  0932                     l2523:	
  2436                           ;incstack = 0
  2437                           ; Regs used in ___fltol: [wreg+status,2+status,0]
  2438                           
  2439  0932  1003               	clrc
  2440  0933  1683               	bsf	3,5	;RP0=1, select bank1
  2441  0934  1303               	bcf	3,6	;RP1=0, select bank1
  2442  0935  0D4A               	rlf	(___fltol@f1+2)^(0+128),w
  2443  0936  0D4B               	rlf	(___fltol@f1+3)^(0+128),w
  2444  0937  00CC               	movwf	??___fltol^(0+128)
  2445  0938  084C               	movf	??___fltol^(0+128),w
  2446  0939  00D2               	movwf	___fltol@exp1^(0+128)
  2447  093A  0852               	movf	___fltol@exp1^(0+128),w
  2448  093B  1D03               	btfss	3,2
  2449  093C  293E               	goto	u3551
  2450  093D  293F               	goto	u3550
  2451  093E                     u3551:
  2452  093E  2948               	goto	l2529
  2453  093F                     u3550:
  2454  093F                     l2525:
  2455  093F  3000               	movlw	0
  2456  0940  00CB               	movwf	(?___fltol+3)^(0+128)
  2457  0941  3000               	movlw	0
  2458  0942  00CA               	movwf	(?___fltol+2)^(0+128)
  2459  0943  3000               	movlw	0
  2460  0944  00C9               	movwf	(?___fltol+1)^(0+128)
  2461  0945  3000               	movlw	0
  2462  0946  00C8               	movwf	?___fltol^(0+128)
  2463  0947  29AD               	goto	l425
  2464  0948                     l2529:
  2465  0948  0848               	movf	___fltol@f1^(0+128),w
  2466  0949  00CC               	movwf	??___fltol^(0+128)
  2467  094A  0849               	movf	(___fltol@f1+1)^(0+128),w
  2468  094B  00CD               	movwf	(??___fltol^(0+128)+1)
  2469  094C  084A               	movf	(___fltol@f1+2)^(0+128),w
  2470  094D  00CE               	movwf	(??___fltol^(0+128)+2)
  2471  094E  084B               	movf	(___fltol@f1+3)^(0+128),w
  2472  094F  00CF               	movwf	(??___fltol^(0+128)+3)
  2473  0950  301F               	movlw	31
  2474  0951                     u3565:
  2475  0951  1003               	clrc
  2476  0952  0CCF               	rrf	(??___fltol^(0+128)+3),f
  2477  0953  0CCE               	rrf	(??___fltol^(0+128)+2),f
  2478  0954  0CCD               	rrf	(??___fltol^(0+128)+1),f
  2479  0955  0CCC               	rrf	??___fltol^(0+128),f
  2480  0956                     u3560:
  2481  0956  3EFF               	addlw	-1
  2482  0957  1D03               	skipz
  2483  0958  2951               	goto	u3565
  2484  0959  084C               	movf	??___fltol^(0+128),w
  2485  095A  00D0               	movwf	(??___fltol+4)^(0+128)
  2486  095B  0850               	movf	(??___fltol+4)^(0+128),w
  2487  095C  00D1               	movwf	___fltol@sign1^(0+128)
  2488  095D                     l2531:
  2489  095D  17CA               	bsf	(___fltol@f1^(0+128)+2),7
  2490  095E                     l2533:
  2491  095E  30FF               	movlw	255
  2492  095F  05C8               	andwf	___fltol@f1^(0+128),f
  2493  0960  30FF               	movlw	255
  2494  0961  05C9               	andwf	(___fltol@f1+1)^(0+128),f
  2495  0962  30FF               	movlw	255
  2496  0963  05CA               	andwf	(___fltol@f1+2)^(0+128),f
  2497  0964  3000               	movlw	0
  2498  0965  05CB               	andwf	(___fltol@f1+3)^(0+128),f
  2499  0966                     l2535:
  2500  0966  3096               	movlw	150
  2501  0967  02D2               	subwf	___fltol@exp1^(0+128),f
  2502  0968                     l2537:
  2503  0968  1FD2               	btfss	___fltol@exp1^(0+128),7
  2504  0969  296B               	goto	u3571
  2505  096A  296C               	goto	u3570
  2506  096B                     u3571:
  2507  096B  2986               	goto	l2547
  2508  096C                     u3570:
  2509  096C                     l2539:
  2510  096C  0852               	movf	___fltol@exp1^(0+128),w
  2511  096D  3A80               	xorlw	128
  2512  096E  3E97               	addlw	151
  2513  096F  1803               	skipnc
  2514  0970  2972               	goto	u3581
  2515  0971  2973               	goto	u3580
  2516  0972                     u3581:
  2517  0972  2974               	goto	l2545
  2518  0973                     u3580:
  2519  0973  293F               	goto	l2525
  2520  0974                     l2545:
  2521  0974  3001               	movlw	1
  2522  0975                     u3595:
  2523  0975  1003               	clrc
  2524  0976  0CCB               	rrf	(___fltol@f1+3)^(0+128),f
  2525  0977  0CCA               	rrf	(___fltol@f1+2)^(0+128),f
  2526  0978  0CC9               	rrf	(___fltol@f1+1)^(0+128),f
  2527  0979  0CC8               	rrf	___fltol@f1^(0+128),f
  2528  097A  3EFF               	addlw	-1
  2529  097B  1D03               	skipz
  2530  097C  2975               	goto	u3595
  2531  097D  3001               	movlw	1
  2532  097E  00CC               	movwf	??___fltol^(0+128)
  2533  097F  084C               	movf	??___fltol^(0+128),w
  2534  0980  07D2               	addwf	___fltol@exp1^(0+128),f
  2535  0981  1D03               	btfss	3,2
  2536  0982  2984               	goto	u3601
  2537  0983  2985               	goto	u3600
  2538  0984                     u3601:
  2539  0984  2974               	goto	l2545
  2540  0985                     u3600:
  2541  0985  299D               	goto	l2555
  2542  0986                     l2547:
  2543  0986  3020               	movlw	32
  2544  0987  0252               	subwf	___fltol@exp1^(0+128),w
  2545  0988  1C03               	skipc
  2546  0989  298B               	goto	u3611
  2547  098A  298C               	goto	u3610
  2548  098B                     u3611:
  2549  098B  2998               	goto	l432
  2550  098C                     u3610:
  2551  098C  293F               	goto	l2525
  2552  098D                     l2553:
  2553  098D  3001               	movlw	1
  2554  098E  00CC               	movwf	??___fltol^(0+128)
  2555  098F                     u3625:
  2556  098F  1003               	clrc
  2557  0990  0DC8               	rlf	___fltol@f1^(0+128),f
  2558  0991  0DC9               	rlf	(___fltol@f1+1)^(0+128),f
  2559  0992  0DCA               	rlf	(___fltol@f1+2)^(0+128),f
  2560  0993  0DCB               	rlf	(___fltol@f1+3)^(0+128),f
  2561  0994  0BCC               	decfsz	??___fltol^(0+128),f
  2562  0995  298F               	goto	u3625
  2563  0996  3001               	movlw	1
  2564  0997  02D2               	subwf	___fltol@exp1^(0+128),f
  2565  0998                     l432:
  2566  0998  0852               	movf	___fltol@exp1^(0+128),w
  2567  0999  1D03               	btfss	3,2
  2568  099A  299C               	goto	u3631
  2569  099B  299D               	goto	u3630
  2570  099C                     u3631:
  2571  099C  298D               	goto	l2553
  2572  099D                     u3630:
  2573  099D                     l2555:
  2574  099D  0851               	movf	___fltol@sign1^(0+128),w
  2575  099E  1903               	btfsc	3,2
  2576  099F  29A1               	goto	u3641
  2577  09A0  29A2               	goto	u3640
  2578  09A1                     u3641:
  2579  09A1  29AD               	goto	l435
  2580  09A2                     u3640:
  2581  09A2                     l2557:
  2582  09A2  09C8               	comf	___fltol@f1^(0+128),f
  2583  09A3  09C9               	comf	(___fltol@f1+1)^(0+128),f
  2584  09A4  09CA               	comf	(___fltol@f1+2)^(0+128),f
  2585  09A5  09CB               	comf	(___fltol@f1+3)^(0+128),f
  2586  09A6  0AC8               	incf	___fltol@f1^(0+128),f
  2587  09A7  1903               	skipnz
  2588  09A8  0AC9               	incf	(___fltol@f1+1)^(0+128),f
  2589  09A9  1903               	skipnz
  2590  09AA  0ACA               	incf	(___fltol@f1+2)^(0+128),f
  2591  09AB  1903               	skipnz
  2592  09AC  0ACB               	incf	(___fltol@f1+3)^(0+128),f
  2593  09AD                     l435:
  2594  09AD                     l425:
  2595  09AD  0008               	return
  2596  09AE                     __end_of___fltol:
  2597                           
  2598                           	psect	text7
  2599  038D                     __ptext7:	
  2600 ;; *************** function ___flmul *****************
  2601 ;; Defined at:
  2602 ;;		line 8 in file "C:\Program Files\Microchip\xc8\v2.32\pic\sources\c90\common\sprcmul.c"
  2603 ;; Parameters:    Size  Location     Type
  2604 ;;  b               4   14[BANK0 ] long 
  2605 ;;  a               4   18[BANK0 ] long 
  2606 ;; Auto vars:     Size  Location     Type
  2607 ;;  prod            4   34[BANK0 ] struct .
  2608 ;;  grs             4   29[BANK0 ] unsigned long 
  2609 ;;  temp            2   38[BANK0 ] struct .
  2610 ;;  bexp            1   33[BANK0 ] unsigned char 
  2611 ;;  aexp            1   28[BANK0 ] unsigned char 
  2612 ;;  sign            1   27[BANK0 ] unsigned char 
  2613 ;; Return value:  Size  Location     Type
  2614 ;;                  4   14[BANK0 ] unsigned char 
  2615 ;; Registers used:
  2616 ;;		wreg, status,2, status,0, btemp+1, pclath, cstack
  2617 ;; Tracked objects:
  2618 ;;		On entry : 0/0
  2619 ;;		On exit  : 0/0
  2620 ;;		Unchanged: 0/0
  2621 ;; Data sizes:     COMMON   BANK0   BANK1   BANK3   BANK2
  2622 ;;      Params:         0       8       0       0       0
  2623 ;;      Locals:         0      13       0       0       0
  2624 ;;      Temps:          0       5       0       0       0
  2625 ;;      Totals:         0      26       0       0       0
  2626 ;;Total ram usage:       26 bytes
  2627 ;; Hardware stack levels used: 1
  2628 ;; Hardware stack levels required when called: 2
  2629 ;; This function calls:
  2630 ;;		__Umul8_16
  2631 ;; This function is called by:
  2632 ;;		_dista_cal
  2633 ;;		_servo
  2634 ;; This function uses a non-reentrant model
  2635 ;;
  2636                           
  2637                           
  2638                           ;psect for function ___flmul
  2639  038D                     ___flmul:
  2640  038D                     l2753:	
  2641                           ;incstack = 0
  2642                           ; Regs used in ___flmul: [wreg+status,2+status,0+btemp+1+pclath+cstack]
  2643                           
  2644  038D  1283               	bcf	3,5	;RP0=0, select bank0
  2645  038E  1303               	bcf	3,6	;RP1=0, select bank0
  2646  038F  0831               	movf	___flmul@b+3,w
  2647  0390  3980               	andlw	128
  2648  0391  00B6               	movwf	??___flmul
  2649  0392  0836               	movf	??___flmul,w
  2650  0393  00BB               	movwf	___flmul@sign
  2651  0394                     l2755:
  2652  0394  0831               	movf	___flmul@b+3,w
  2653  0395  00B6               	movwf	??___flmul
  2654  0396  0736               	addwf	??___flmul,w
  2655  0397  00B7               	movwf	??___flmul+1
  2656  0398  0837               	movf	??___flmul+1,w
  2657  0399  00C1               	movwf	___flmul@bexp
  2658  039A                     l2757:
  2659  039A  1FB0               	btfss	___flmul@b+2,7
  2660  039B  2B9D               	goto	u4111
  2661  039C  2B9E               	goto	u4110
  2662  039D                     u4111:
  2663  039D  2B9F               	goto	l2761
  2664  039E                     u4110:
  2665  039E                     l2759:
  2666  039E  1441               	bsf	___flmul@bexp,0
  2667  039F                     l2761:
  2668  039F  0841               	movf	___flmul@bexp,w
  2669  03A0  1903               	btfsc	3,2
  2670  03A1  2BA3               	goto	u4121
  2671  03A2  2BA4               	goto	u4120
  2672  03A3                     u4121:
  2673  03A3  2BB3               	goto	l2769
  2674  03A4                     u4120:
  2675  03A4                     l2763:
  2676  03A4  0A41               	incf	___flmul@bexp,w
  2677  03A5  1D03               	btfss	3,2
  2678  03A6  2BA8               	goto	u4131
  2679  03A7  2BA9               	goto	u4130
  2680  03A8                     u4131:
  2681  03A8  2BB1               	goto	l2767
  2682  03A9                     u4130:
  2683  03A9                     l2765:
  2684  03A9  3000               	movlw	0
  2685  03AA  00B1               	movwf	___flmul@b+3
  2686  03AB  3000               	movlw	0
  2687  03AC  00B0               	movwf	___flmul@b+2
  2688  03AD  3000               	movlw	0
  2689  03AE  00AF               	movwf	___flmul@b+1
  2690  03AF  3000               	movlw	0
  2691  03B0  00AE               	movwf	___flmul@b
  2692  03B1                     l2767:
  2693  03B1  17B0               	bsf	___flmul@b+2,7
  2694  03B2  2BBB               	goto	l2771
  2695  03B3                     l2769:
  2696  03B3  3000               	movlw	0
  2697  03B4  00B1               	movwf	___flmul@b+3
  2698  03B5  3000               	movlw	0
  2699  03B6  00B0               	movwf	___flmul@b+2
  2700  03B7  3000               	movlw	0
  2701  03B8  00AF               	movwf	___flmul@b+1
  2702  03B9  3000               	movlw	0
  2703  03BA  00AE               	movwf	___flmul@b
  2704  03BB                     l2771:
  2705  03BB  0835               	movf	___flmul@a+3,w
  2706  03BC  3980               	andlw	128
  2707  03BD  00B6               	movwf	??___flmul
  2708  03BE  0836               	movf	??___flmul,w
  2709  03BF  06BB               	xorwf	___flmul@sign,f
  2710  03C0                     l2773:
  2711  03C0  0835               	movf	___flmul@a+3,w
  2712  03C1  00B6               	movwf	??___flmul
  2713  03C2  0736               	addwf	??___flmul,w
  2714  03C3  00B7               	movwf	??___flmul+1
  2715  03C4  0837               	movf	??___flmul+1,w
  2716  03C5  00BC               	movwf	___flmul@aexp
  2717  03C6                     l2775:
  2718  03C6  1FB4               	btfss	___flmul@a+2,7
  2719  03C7  2BC9               	goto	u4141
  2720  03C8  2BCA               	goto	u4140
  2721  03C9                     u4141:
  2722  03C9  2BCB               	goto	l2779
  2723  03CA                     u4140:
  2724  03CA                     l2777:
  2725  03CA  143C               	bsf	___flmul@aexp,0
  2726  03CB                     l2779:
  2727  03CB  083C               	movf	___flmul@aexp,w
  2728  03CC  1903               	btfsc	3,2
  2729  03CD  2BCF               	goto	u4151
  2730  03CE  2BD0               	goto	u4150
  2731  03CF                     u4151:
  2732  03CF  2BDF               	goto	l2787
  2733  03D0                     u4150:
  2734  03D0                     l2781:
  2735  03D0  0A3C               	incf	___flmul@aexp,w
  2736  03D1  1D03               	btfss	3,2
  2737  03D2  2BD4               	goto	u4161
  2738  03D3  2BD5               	goto	u4160
  2739  03D4                     u4161:
  2740  03D4  2BDD               	goto	l2785
  2741  03D5                     u4160:
  2742  03D5                     l2783:
  2743  03D5  3000               	movlw	0
  2744  03D6  00B5               	movwf	___flmul@a+3
  2745  03D7  3000               	movlw	0
  2746  03D8  00B4               	movwf	___flmul@a+2
  2747  03D9  3000               	movlw	0
  2748  03DA  00B3               	movwf	___flmul@a+1
  2749  03DB  3000               	movlw	0
  2750  03DC  00B2               	movwf	___flmul@a
  2751  03DD                     l2785:
  2752  03DD  17B4               	bsf	___flmul@a+2,7
  2753  03DE  2BE7               	goto	l2789
  2754  03DF                     l2787:
  2755  03DF  3000               	movlw	0
  2756  03E0  00B5               	movwf	___flmul@a+3
  2757  03E1  3000               	movlw	0
  2758  03E2  00B4               	movwf	___flmul@a+2
  2759  03E3  3000               	movlw	0
  2760  03E4  00B3               	movwf	___flmul@a+1
  2761  03E5  3000               	movlw	0
  2762  03E6  00B2               	movwf	___flmul@a
  2763  03E7                     l2789:
  2764  03E7  083C               	movf	___flmul@aexp,w
  2765  03E8  1903               	btfsc	3,2
  2766  03E9  2BEB               	goto	u4171
  2767  03EA  2BEC               	goto	u4170
  2768  03EB                     u4171:
  2769  03EB  2BF1               	goto	l2793
  2770  03EC                     u4170:
  2771  03EC                     l2791:
  2772  03EC  0841               	movf	___flmul@bexp,w
  2773  03ED  1D03               	btfss	3,2
  2774  03EE  2BF0               	goto	u4181
  2775  03EF  2BF1               	goto	u4180
  2776  03F0                     u4181:
  2777  03F0  2BFA               	goto	l2797
  2778  03F1                     u4180:
  2779  03F1                     l2793:
  2780  03F1  3000               	movlw	0
  2781  03F2  00B1               	movwf	?___flmul+3
  2782  03F3  3000               	movlw	0
  2783  03F4  00B0               	movwf	?___flmul+2
  2784  03F5  3000               	movlw	0
  2785  03F6  00AF               	movwf	?___flmul+1
  2786  03F7  3000               	movlw	0
  2787  03F8  00AE               	movwf	?___flmul
  2788  03F9  2EED               	goto	l628
  2789  03FA                     l2797:
  2790  03FA  082E               	movf	___flmul@b,w
  2791  03FB  00B6               	movwf	??___flmul
  2792  03FC  0836               	movf	??___flmul,w
  2793  03FD  00F4               	movwf	__Umul8_16@multiplicand
  2794  03FE  0834               	movf	___flmul@a+2,w
  2795  03FF  160A  118A  27D7  120A  118A  	fcall	__Umul8_16
  2796  0404  0875               	movf	?__Umul8_16+1,w
  2797  0405  1283               	bcf	3,5	;RP0=0, select bank0
  2798  0406  1303               	bcf	3,6	;RP1=0, select bank0
  2799  0407  00C7               	movwf	___flmul@temp+1
  2800  0408  0874               	movf	?__Umul8_16,w
  2801  0409  00C6               	movwf	___flmul@temp
  2802  040A                     l2799:
  2803  040A  0846               	movf	___flmul@temp,w
  2804  040B  00B6               	movwf	??___flmul
  2805  040C  01B7               	clrf	??___flmul+1
  2806  040D  01B8               	clrf	??___flmul+2
  2807  040E  01B9               	clrf	??___flmul+3
  2808  040F  0839               	movf	??___flmul+3,w
  2809  0410  00C0               	movwf	___flmul@grs+3
  2810  0411  0838               	movf	??___flmul+2,w
  2811  0412  00BF               	movwf	___flmul@grs+2
  2812  0413  0837               	movf	??___flmul+1,w
  2813  0414  00BE               	movwf	___flmul@grs+1
  2814  0415  0836               	movf	??___flmul,w
  2815  0416  00BD               	movwf	___flmul@grs
  2816  0417                     l2801:
  2817  0417  0847               	movf	___flmul@temp+1,w
  2818  0418  00B6               	movwf	??___flmul
  2819  0419  01B7               	clrf	??___flmul+1
  2820  041A  01B8               	clrf	??___flmul+2
  2821  041B  01B9               	clrf	??___flmul+3
  2822  041C  0839               	movf	??___flmul+3,w
  2823  041D  00C5               	movwf	___flmul@prod+3
  2824  041E  0838               	movf	??___flmul+2,w
  2825  041F  00C4               	movwf	___flmul@prod+2
  2826  0420  0837               	movf	??___flmul+1,w
  2827  0421  00C3               	movwf	___flmul@prod+1
  2828  0422  0836               	movf	??___flmul,w
  2829  0423  00C2               	movwf	___flmul@prod
  2830  0424  082F               	movf	___flmul@b+1,w
  2831  0425  00B6               	movwf	??___flmul
  2832  0426  0836               	movf	??___flmul,w
  2833  0427  00F4               	movwf	__Umul8_16@multiplicand
  2834  0428  0833               	movf	___flmul@a+1,w
  2835  0429  160A  118A  27D7  120A  118A  	fcall	__Umul8_16
  2836  042E  0875               	movf	?__Umul8_16+1,w
  2837  042F  1283               	bcf	3,5	;RP0=0, select bank0
  2838  0430  1303               	bcf	3,6	;RP1=0, select bank0
  2839  0431  00C7               	movwf	___flmul@temp+1
  2840  0432  0874               	movf	?__Umul8_16,w
  2841  0433  00C6               	movwf	___flmul@temp
  2842  0434                     l2803:
  2843  0434  0846               	movf	___flmul@temp,w
  2844  0435  00B6               	movwf	??___flmul
  2845  0436  01B7               	clrf	??___flmul+1
  2846  0437  01B8               	clrf	??___flmul+2
  2847  0438  01B9               	clrf	??___flmul+3
  2848  0439  0836               	movf	??___flmul,w
  2849  043A  07BD               	addwf	___flmul@grs,f
  2850  043B  0837               	movf	??___flmul+1,w
  2851  043C  1103               	clrz
  2852  043D  1803               	skipnc
  2853  043E  3E01               	addlw	1
  2854  043F  1903               	skipnz
  2855  0440  2C42               	goto	u4191
  2856  0441  07BE               	addwf	___flmul@grs+1,f
  2857  0442                     u4191:
  2858  0442  0838               	movf	??___flmul+2,w
  2859  0443  1103               	clrz
  2860  0444  1803               	skipnc
  2861  0445  3E01               	addlw	1
  2862  0446  1903               	skipnz
  2863  0447  2C49               	goto	u4192
  2864  0448  07BF               	addwf	___flmul@grs+2,f
  2865  0449                     u4192:
  2866  0449  0839               	movf	??___flmul+3,w
  2867  044A  1103               	clrz
  2868  044B  1803               	skipnc
  2869  044C  3E01               	addlw	1
  2870  044D  1903               	skipnz
  2871  044E  2C50               	goto	u4193
  2872  044F  07C0               	addwf	___flmul@grs+3,f
  2873  0450                     u4193:
  2874  0450                     l2805:
  2875  0450  0847               	movf	___flmul@temp+1,w
  2876  0451  00B6               	movwf	??___flmul
  2877  0452  01B7               	clrf	??___flmul+1
  2878  0453  01B8               	clrf	??___flmul+2
  2879  0454  01B9               	clrf	??___flmul+3
  2880  0455  0836               	movf	??___flmul,w
  2881  0456  07C2               	addwf	___flmul@prod,f
  2882  0457  0837               	movf	??___flmul+1,w
  2883  0458  1103               	clrz
  2884  0459  1803               	skipnc
  2885  045A  3E01               	addlw	1
  2886  045B  1903               	skipnz
  2887  045C  2C5E               	goto	u4201
  2888  045D  07C3               	addwf	___flmul@prod+1,f
  2889  045E                     u4201:
  2890  045E  0838               	movf	??___flmul+2,w
  2891  045F  1103               	clrz
  2892  0460  1803               	skipnc
  2893  0461  3E01               	addlw	1
  2894  0462  1903               	skipnz
  2895  0463  2C65               	goto	u4202
  2896  0464  07C4               	addwf	___flmul@prod+2,f
  2897  0465                     u4202:
  2898  0465  0839               	movf	??___flmul+3,w
  2899  0466  1103               	clrz
  2900  0467  1803               	skipnc
  2901  0468  3E01               	addlw	1
  2902  0469  1903               	skipnz
  2903  046A  2C6C               	goto	u4203
  2904  046B  07C5               	addwf	___flmul@prod+3,f
  2905  046C                     u4203:
  2906  046C  0830               	movf	___flmul@b+2,w
  2907  046D  00B6               	movwf	??___flmul
  2908  046E  0836               	movf	??___flmul,w
  2909  046F  00F4               	movwf	__Umul8_16@multiplicand
  2910  0470  0832               	movf	___flmul@a,w
  2911  0471  160A  118A  27D7  120A  118A  	fcall	__Umul8_16
  2912  0476  0875               	movf	?__Umul8_16+1,w
  2913  0477  1283               	bcf	3,5	;RP0=0, select bank0
  2914  0478  1303               	bcf	3,6	;RP1=0, select bank0
  2915  0479  00C7               	movwf	___flmul@temp+1
  2916  047A  0874               	movf	?__Umul8_16,w
  2917  047B  00C6               	movwf	___flmul@temp
  2918  047C                     l2807:
  2919  047C  0846               	movf	___flmul@temp,w
  2920  047D  00B6               	movwf	??___flmul
  2921  047E  01B7               	clrf	??___flmul+1
  2922  047F  01B8               	clrf	??___flmul+2
  2923  0480  01B9               	clrf	??___flmul+3
  2924  0481  0836               	movf	??___flmul,w
  2925  0482  07BD               	addwf	___flmul@grs,f
  2926  0483  0837               	movf	??___flmul+1,w
  2927  0484  1103               	clrz
  2928  0485  1803               	skipnc
  2929  0486  3E01               	addlw	1
  2930  0487  1903               	skipnz
  2931  0488  2C8A               	goto	u4211
  2932  0489  07BE               	addwf	___flmul@grs+1,f
  2933  048A                     u4211:
  2934  048A  0838               	movf	??___flmul+2,w
  2935  048B  1103               	clrz
  2936  048C  1803               	skipnc
  2937  048D  3E01               	addlw	1
  2938  048E  1903               	skipnz
  2939  048F  2C91               	goto	u4212
  2940  0490  07BF               	addwf	___flmul@grs+2,f
  2941  0491                     u4212:
  2942  0491  0839               	movf	??___flmul+3,w
  2943  0492  1103               	clrz
  2944  0493  1803               	skipnc
  2945  0494  3E01               	addlw	1
  2946  0495  1903               	skipnz
  2947  0496  2C98               	goto	u4213
  2948  0497  07C0               	addwf	___flmul@grs+3,f
  2949  0498                     u4213:
  2950  0498                     l2809:
  2951  0498  0847               	movf	___flmul@temp+1,w
  2952  0499  00B6               	movwf	??___flmul
  2953  049A  01B7               	clrf	??___flmul+1
  2954  049B  01B8               	clrf	??___flmul+2
  2955  049C  01B9               	clrf	??___flmul+3
  2956  049D  0836               	movf	??___flmul,w
  2957  049E  07C2               	addwf	___flmul@prod,f
  2958  049F  0837               	movf	??___flmul+1,w
  2959  04A0  1103               	clrz
  2960  04A1  1803               	skipnc
  2961  04A2  3E01               	addlw	1
  2962  04A3  1903               	skipnz
  2963  04A4  2CA6               	goto	u4221
  2964  04A5  07C3               	addwf	___flmul@prod+1,f
  2965  04A6                     u4221:
  2966  04A6  0838               	movf	??___flmul+2,w
  2967  04A7  1103               	clrz
  2968  04A8  1803               	skipnc
  2969  04A9  3E01               	addlw	1
  2970  04AA  1903               	skipnz
  2971  04AB  2CAD               	goto	u4222
  2972  04AC  07C4               	addwf	___flmul@prod+2,f
  2973  04AD                     u4222:
  2974  04AD  0839               	movf	??___flmul+3,w
  2975  04AE  1103               	clrz
  2976  04AF  1803               	skipnc
  2977  04B0  3E01               	addlw	1
  2978  04B1  1903               	skipnz
  2979  04B2  2CB4               	goto	u4223
  2980  04B3  07C5               	addwf	___flmul@prod+3,f
  2981  04B4                     u4223:
  2982  04B4                     l2811:
  2983  04B4  3008               	movlw	8
  2984  04B5  00B6               	movwf	??___flmul
  2985  04B6                     u4235:
  2986  04B6  1003               	clrc
  2987  04B7  0DBD               	rlf	___flmul@grs,f
  2988  04B8  0DBE               	rlf	___flmul@grs+1,f
  2989  04B9  0DBF               	rlf	___flmul@grs+2,f
  2990  04BA  0DC0               	rlf	___flmul@grs+3,f
  2991  04BB  0BB6               	decfsz	??___flmul,f
  2992  04BC  2CB6               	goto	u4235
  2993  04BD                     l2813:
  2994  04BD  082F               	movf	___flmul@b+1,w
  2995  04BE  00B6               	movwf	??___flmul
  2996  04BF  0836               	movf	??___flmul,w
  2997  04C0  00F4               	movwf	__Umul8_16@multiplicand
  2998  04C1  0832               	movf	___flmul@a,w
  2999  04C2  160A  118A  27D7  120A  118A  	fcall	__Umul8_16
  3000  04C7  0875               	movf	?__Umul8_16+1,w
  3001  04C8  1283               	bcf	3,5	;RP0=0, select bank0
  3002  04C9  1303               	bcf	3,6	;RP1=0, select bank0
  3003  04CA  00C7               	movwf	___flmul@temp+1
  3004  04CB  0874               	movf	?__Umul8_16,w
  3005  04CC  00C6               	movwf	___flmul@temp
  3006  04CD                     l2815:
  3007  04CD  0846               	movf	___flmul@temp,w
  3008  04CE  00B6               	movwf	??___flmul
  3009  04CF  0847               	movf	___flmul@temp+1,w
  3010  04D0  00B7               	movwf	??___flmul+1
  3011  04D1  01B8               	clrf	??___flmul+2
  3012  04D2  01B9               	clrf	??___flmul+3
  3013  04D3  0836               	movf	??___flmul,w
  3014  04D4  07BD               	addwf	___flmul@grs,f
  3015  04D5  0837               	movf	??___flmul+1,w
  3016  04D6  1103               	clrz
  3017  04D7  1803               	skipnc
  3018  04D8  3E01               	addlw	1
  3019  04D9  1903               	skipnz
  3020  04DA  2CDC               	goto	u4241
  3021  04DB  07BE               	addwf	___flmul@grs+1,f
  3022  04DC                     u4241:
  3023  04DC  0838               	movf	??___flmul+2,w
  3024  04DD  1103               	clrz
  3025  04DE  1803               	skipnc
  3026  04DF  3E01               	addlw	1
  3027  04E0  1903               	skipnz
  3028  04E1  2CE3               	goto	u4242
  3029  04E2  07BF               	addwf	___flmul@grs+2,f
  3030  04E3                     u4242:
  3031  04E3  0839               	movf	??___flmul+3,w
  3032  04E4  1103               	clrz
  3033  04E5  1803               	skipnc
  3034  04E6  3E01               	addlw	1
  3035  04E7  1903               	skipnz
  3036  04E8  2CEA               	goto	u4243
  3037  04E9  07C0               	addwf	___flmul@grs+3,f
  3038  04EA                     u4243:
  3039  04EA                     l2817:
  3040  04EA  082E               	movf	___flmul@b,w
  3041  04EB  00B6               	movwf	??___flmul
  3042  04EC  0836               	movf	??___flmul,w
  3043  04ED  00F4               	movwf	__Umul8_16@multiplicand
  3044  04EE  0833               	movf	___flmul@a+1,w
  3045  04EF  160A  118A  27D7  120A  118A  	fcall	__Umul8_16
  3046  04F4  0875               	movf	?__Umul8_16+1,w
  3047  04F5  1283               	bcf	3,5	;RP0=0, select bank0
  3048  04F6  1303               	bcf	3,6	;RP1=0, select bank0
  3049  04F7  00C7               	movwf	___flmul@temp+1
  3050  04F8  0874               	movf	?__Umul8_16,w
  3051  04F9  00C6               	movwf	___flmul@temp
  3052  04FA                     l2819:
  3053  04FA  0846               	movf	___flmul@temp,w
  3054  04FB  00B6               	movwf	??___flmul
  3055  04FC  0847               	movf	___flmul@temp+1,w
  3056  04FD  00B7               	movwf	??___flmul+1
  3057  04FE  01B8               	clrf	??___flmul+2
  3058  04FF  01B9               	clrf	??___flmul+3
  3059  0500  0836               	movf	??___flmul,w
  3060  0501  07BD               	addwf	___flmul@grs,f
  3061  0502  0837               	movf	??___flmul+1,w
  3062  0503  1103               	clrz
  3063  0504  1803               	skipnc
  3064  0505  3E01               	addlw	1
  3065  0506  1903               	skipnz
  3066  0507  2D09               	goto	u4251
  3067  0508  07BE               	addwf	___flmul@grs+1,f
  3068  0509                     u4251:
  3069  0509  0838               	movf	??___flmul+2,w
  3070  050A  1103               	clrz
  3071  050B  1803               	skipnc
  3072  050C  3E01               	addlw	1
  3073  050D  1903               	skipnz
  3074  050E  2D10               	goto	u4252
  3075  050F  07BF               	addwf	___flmul@grs+2,f
  3076  0510                     u4252:
  3077  0510  0839               	movf	??___flmul+3,w
  3078  0511  1103               	clrz
  3079  0512  1803               	skipnc
  3080  0513  3E01               	addlw	1
  3081  0514  1903               	skipnz
  3082  0515  2D17               	goto	u4253
  3083  0516  07C0               	addwf	___flmul@grs+3,f
  3084  0517                     u4253:
  3085  0517                     l2821:
  3086  0517  3008               	movlw	8
  3087  0518  00B6               	movwf	??___flmul
  3088  0519                     u4265:
  3089  0519  1003               	clrc
  3090  051A  0DBD               	rlf	___flmul@grs,f
  3091  051B  0DBE               	rlf	___flmul@grs+1,f
  3092  051C  0DBF               	rlf	___flmul@grs+2,f
  3093  051D  0DC0               	rlf	___flmul@grs+3,f
  3094  051E  0BB6               	decfsz	??___flmul,f
  3095  051F  2D19               	goto	u4265
  3096  0520  082E               	movf	___flmul@b,w
  3097  0521  00B6               	movwf	??___flmul
  3098  0522  0836               	movf	??___flmul,w
  3099  0523  00F4               	movwf	__Umul8_16@multiplicand
  3100  0524  0832               	movf	___flmul@a,w
  3101  0525  160A  118A  27D7  120A  118A  	fcall	__Umul8_16
  3102  052A  0875               	movf	?__Umul8_16+1,w
  3103  052B  1283               	bcf	3,5	;RP0=0, select bank0
  3104  052C  1303               	bcf	3,6	;RP1=0, select bank0
  3105  052D  00C7               	movwf	___flmul@temp+1
  3106  052E  0874               	movf	?__Umul8_16,w
  3107  052F  00C6               	movwf	___flmul@temp
  3108  0530                     l2823:
  3109  0530  0846               	movf	___flmul@temp,w
  3110  0531  00B6               	movwf	??___flmul
  3111  0532  0847               	movf	___flmul@temp+1,w
  3112  0533  00B7               	movwf	??___flmul+1
  3113  0534  01B8               	clrf	??___flmul+2
  3114  0535  01B9               	clrf	??___flmul+3
  3115  0536  0836               	movf	??___flmul,w
  3116  0537  07BD               	addwf	___flmul@grs,f
  3117  0538  0837               	movf	??___flmul+1,w
  3118  0539  1103               	clrz
  3119  053A  1803               	skipnc
  3120  053B  3E01               	addlw	1
  3121  053C  1903               	skipnz
  3122  053D  2D3F               	goto	u4271
  3123  053E  07BE               	addwf	___flmul@grs+1,f
  3124  053F                     u4271:
  3125  053F  0838               	movf	??___flmul+2,w
  3126  0540  1103               	clrz
  3127  0541  1803               	skipnc
  3128  0542  3E01               	addlw	1
  3129  0543  1903               	skipnz
  3130  0544  2D46               	goto	u4272
  3131  0545  07BF               	addwf	___flmul@grs+2,f
  3132  0546                     u4272:
  3133  0546  0839               	movf	??___flmul+3,w
  3134  0547  1103               	clrz
  3135  0548  1803               	skipnc
  3136  0549  3E01               	addlw	1
  3137  054A  1903               	skipnz
  3138  054B  2D4D               	goto	u4273
  3139  054C  07C0               	addwf	___flmul@grs+3,f
  3140  054D                     u4273:
  3141  054D                     l2825:
  3142  054D  082F               	movf	___flmul@b+1,w
  3143  054E  00B6               	movwf	??___flmul
  3144  054F  0836               	movf	??___flmul,w
  3145  0550  00F4               	movwf	__Umul8_16@multiplicand
  3146  0551  0834               	movf	___flmul@a+2,w
  3147  0552  160A  118A  27D7  120A  118A  	fcall	__Umul8_16
  3148  0557  0875               	movf	?__Umul8_16+1,w
  3149  0558  1283               	bcf	3,5	;RP0=0, select bank0
  3150  0559  1303               	bcf	3,6	;RP1=0, select bank0
  3151  055A  00C7               	movwf	___flmul@temp+1
  3152  055B  0874               	movf	?__Umul8_16,w
  3153  055C  00C6               	movwf	___flmul@temp
  3154  055D  0846               	movf	___flmul@temp,w
  3155  055E  00B6               	movwf	??___flmul
  3156  055F  0847               	movf	___flmul@temp+1,w
  3157  0560  00B7               	movwf	??___flmul+1
  3158  0561  01B8               	clrf	??___flmul+2
  3159  0562  01B9               	clrf	??___flmul+3
  3160  0563  0836               	movf	??___flmul,w
  3161  0564  07C2               	addwf	___flmul@prod,f
  3162  0565  0837               	movf	??___flmul+1,w
  3163  0566  1103               	clrz
  3164  0567  1803               	skipnc
  3165  0568  3E01               	addlw	1
  3166  0569  1903               	skipnz
  3167  056A  2D6C               	goto	u4281
  3168  056B  07C3               	addwf	___flmul@prod+1,f
  3169  056C                     u4281:
  3170  056C  0838               	movf	??___flmul+2,w
  3171  056D  1103               	clrz
  3172  056E  1803               	skipnc
  3173  056F  3E01               	addlw	1
  3174  0570  1903               	skipnz
  3175  0571  2D73               	goto	u4282
  3176  0572  07C4               	addwf	___flmul@prod+2,f
  3177  0573                     u4282:
  3178  0573  0839               	movf	??___flmul+3,w
  3179  0574  1103               	clrz
  3180  0575  1803               	skipnc
  3181  0576  3E01               	addlw	1
  3182  0577  1903               	skipnz
  3183  0578  2D7A               	goto	u4283
  3184  0579  07C5               	addwf	___flmul@prod+3,f
  3185  057A                     u4283:
  3186  057A                     l2827:
  3187  057A  0830               	movf	___flmul@b+2,w
  3188  057B  00B6               	movwf	??___flmul
  3189  057C  0836               	movf	??___flmul,w
  3190  057D  00F4               	movwf	__Umul8_16@multiplicand
  3191  057E  0833               	movf	___flmul@a+1,w
  3192  057F  160A  118A  27D7  120A  118A  	fcall	__Umul8_16
  3193  0584  0875               	movf	?__Umul8_16+1,w
  3194  0585  1283               	bcf	3,5	;RP0=0, select bank0
  3195  0586  1303               	bcf	3,6	;RP1=0, select bank0
  3196  0587  00C7               	movwf	___flmul@temp+1
  3197  0588  0874               	movf	?__Umul8_16,w
  3198  0589  00C6               	movwf	___flmul@temp
  3199  058A                     l2829:
  3200  058A  0846               	movf	___flmul@temp,w
  3201  058B  00B6               	movwf	??___flmul
  3202  058C  0847               	movf	___flmul@temp+1,w
  3203  058D  00B7               	movwf	??___flmul+1
  3204  058E  01B8               	clrf	??___flmul+2
  3205  058F  01B9               	clrf	??___flmul+3
  3206  0590  0836               	movf	??___flmul,w
  3207  0591  07C2               	addwf	___flmul@prod,f
  3208  0592  0837               	movf	??___flmul+1,w
  3209  0593  1103               	clrz
  3210  0594  1803               	skipnc
  3211  0595  3E01               	addlw	1
  3212  0596  1903               	skipnz
  3213  0597  2D99               	goto	u4291
  3214  0598  07C3               	addwf	___flmul@prod+1,f
  3215  0599                     u4291:
  3216  0599  0838               	movf	??___flmul+2,w
  3217  059A  1103               	clrz
  3218  059B  1803               	skipnc
  3219  059C  3E01               	addlw	1
  3220  059D  1903               	skipnz
  3221  059E  2DA0               	goto	u4292
  3222  059F  07C4               	addwf	___flmul@prod+2,f
  3223  05A0                     u4292:
  3224  05A0  0839               	movf	??___flmul+3,w
  3225  05A1  1103               	clrz
  3226  05A2  1803               	skipnc
  3227  05A3  3E01               	addlw	1
  3228  05A4  1903               	skipnz
  3229  05A5  2DA7               	goto	u4293
  3230  05A6  07C5               	addwf	___flmul@prod+3,f
  3231  05A7                     u4293:
  3232  05A7  0830               	movf	___flmul@b+2,w
  3233  05A8  00B6               	movwf	??___flmul
  3234  05A9  0836               	movf	??___flmul,w
  3235  05AA  00F4               	movwf	__Umul8_16@multiplicand
  3236  05AB  0834               	movf	___flmul@a+2,w
  3237  05AC  160A  118A  27D7  120A  118A  	fcall	__Umul8_16
  3238  05B1  0875               	movf	?__Umul8_16+1,w
  3239  05B2  1283               	bcf	3,5	;RP0=0, select bank0
  3240  05B3  1303               	bcf	3,6	;RP1=0, select bank0
  3241  05B4  00C7               	movwf	___flmul@temp+1
  3242  05B5  0874               	movf	?__Umul8_16,w
  3243  05B6  00C6               	movwf	___flmul@temp
  3244  05B7                     l2831:
  3245  05B7  0846               	movf	___flmul@temp,w
  3246  05B8  00B6               	movwf	??___flmul
  3247  05B9  0847               	movf	___flmul@temp+1,w
  3248  05BA  00B7               	movwf	??___flmul+1
  3249  05BB  01B8               	clrf	??___flmul+2
  3250  05BC  01B9               	clrf	??___flmul+3
  3251  05BD  3008               	movlw	8
  3252  05BE                     u4305:
  3253  05BE  1003               	clrc
  3254  05BF  0DB6               	rlf	??___flmul,f
  3255  05C0  0DB7               	rlf	??___flmul+1,f
  3256  05C1  0DB8               	rlf	??___flmul+2,f
  3257  05C2  0DB9               	rlf	??___flmul+3,f
  3258  05C3                     u4300:
  3259  05C3  3EFF               	addlw	-1
  3260  05C4  1D03               	skipz
  3261  05C5  2DBE               	goto	u4305
  3262  05C6  0836               	movf	??___flmul,w
  3263  05C7  07C2               	addwf	___flmul@prod,f
  3264  05C8  0837               	movf	??___flmul+1,w
  3265  05C9  1103               	clrz
  3266  05CA  1803               	skipnc
  3267  05CB  3E01               	addlw	1
  3268  05CC  1903               	skipnz
  3269  05CD  2DCF               	goto	u4311
  3270  05CE  07C3               	addwf	___flmul@prod+1,f
  3271  05CF                     u4311:
  3272  05CF  0838               	movf	??___flmul+2,w
  3273  05D0  1103               	clrz
  3274  05D1  1803               	skipnc
  3275  05D2  3E01               	addlw	1
  3276  05D3  1903               	skipnz
  3277  05D4  2DD6               	goto	u4312
  3278  05D5  07C4               	addwf	___flmul@prod+2,f
  3279  05D6                     u4312:
  3280  05D6  0839               	movf	??___flmul+3,w
  3281  05D7  1103               	clrz
  3282  05D8  1803               	skipnc
  3283  05D9  3E01               	addlw	1
  3284  05DA  1903               	skipnz
  3285  05DB  2DDD               	goto	u4313
  3286  05DC  07C5               	addwf	___flmul@prod+3,f
  3287  05DD                     u4313:
  3288  05DD                     l2833:
  3289  05DD  083D               	movf	___flmul@grs,w
  3290  05DE  00B6               	movwf	??___flmul
  3291  05DF  083E               	movf	___flmul@grs+1,w
  3292  05E0  00B7               	movwf	??___flmul+1
  3293  05E1  083F               	movf	___flmul@grs+2,w
  3294  05E2  00B8               	movwf	??___flmul+2
  3295  05E3  0840               	movf	___flmul@grs+3,w
  3296  05E4  00B9               	movwf	??___flmul+3
  3297  05E5  3018               	movlw	24
  3298  05E6                     u4325:
  3299  05E6  1003               	clrc
  3300  05E7  0CB9               	rrf	??___flmul+3,f
  3301  05E8  0CB8               	rrf	??___flmul+2,f
  3302  05E9  0CB7               	rrf	??___flmul+1,f
  3303  05EA  0CB6               	rrf	??___flmul,f
  3304  05EB                     u4320:
  3305  05EB  3EFF               	addlw	-1
  3306  05EC  1D03               	skipz
  3307  05ED  2DE6               	goto	u4325
  3308  05EE  0836               	movf	??___flmul,w
  3309  05EF  07C2               	addwf	___flmul@prod,f
  3310  05F0  0837               	movf	??___flmul+1,w
  3311  05F1  1103               	clrz
  3312  05F2  1803               	skipnc
  3313  05F3  3E01               	addlw	1
  3314  05F4  1903               	skipnz
  3315  05F5  2DF7               	goto	u4331
  3316  05F6  07C3               	addwf	___flmul@prod+1,f
  3317  05F7                     u4331:
  3318  05F7  0838               	movf	??___flmul+2,w
  3319  05F8  1103               	clrz
  3320  05F9  1803               	skipnc
  3321  05FA  3E01               	addlw	1
  3322  05FB  1903               	skipnz
  3323  05FC  2DFE               	goto	u4332
  3324  05FD  07C4               	addwf	___flmul@prod+2,f
  3325  05FE                     u4332:
  3326  05FE  0839               	movf	??___flmul+3,w
  3327  05FF  1103               	clrz
  3328  0600  1803               	skipnc
  3329  0601  3E01               	addlw	1
  3330  0602  1903               	skipnz
  3331  0603  2E05               	goto	u4333
  3332  0604  07C5               	addwf	___flmul@prod+3,f
  3333  0605                     u4333:
  3334  0605                     l2835:
  3335  0605  3008               	movlw	8
  3336  0606  00B6               	movwf	??___flmul
  3337  0607                     u4345:
  3338  0607  1003               	clrc
  3339  0608  0DBD               	rlf	___flmul@grs,f
  3340  0609  0DBE               	rlf	___flmul@grs+1,f
  3341  060A  0DBF               	rlf	___flmul@grs+2,f
  3342  060B  0DC0               	rlf	___flmul@grs+3,f
  3343  060C  0BB6               	decfsz	??___flmul,f
  3344  060D  2E07               	goto	u4345
  3345  060E                     l2837:
  3346  060E  0841               	movf	___flmul@bexp,w
  3347  060F  073C               	addwf	___flmul@aexp,w
  3348  0610  00B6               	movwf	??___flmul
  3349  0611  01B7               	clrf	??___flmul+1
  3350  0612  0DB7               	rlf	??___flmul+1,f
  3351  0613  0836               	movf	??___flmul,w
  3352  0614  3E82               	addlw	130
  3353  0615  00C6               	movwf	___flmul@temp
  3354  0616  0837               	movf	??___flmul+1,w
  3355  0617  1803               	skipnc
  3356  0618  3E01               	addlw	1
  3357  0619  3EFF               	addlw	255
  3358  061A  00C7               	movwf	___flmul@temp+1
  3359  061B  2E39               	goto	l2849
  3360  061C                     l2839:
  3361  061C  3001               	movlw	1
  3362  061D  00B6               	movwf	??___flmul
  3363  061E                     u4355:
  3364  061E  1003               	clrc
  3365  061F  0DC2               	rlf	___flmul@prod,f
  3366  0620  0DC3               	rlf	___flmul@prod+1,f
  3367  0621  0DC4               	rlf	___flmul@prod+2,f
  3368  0622  0DC5               	rlf	___flmul@prod+3,f
  3369  0623  0BB6               	decfsz	??___flmul,f
  3370  0624  2E1E               	goto	u4355
  3371  0625                     l2841:
  3372  0625  1FC0               	btfss	___flmul@grs+3,7
  3373  0626  2E28               	goto	u4361
  3374  0627  2E29               	goto	u4360
  3375  0628                     u4361:
  3376  0628  2E2A               	goto	l2845
  3377  0629                     u4360:
  3378  0629                     l2843:
  3379  0629  1442               	bsf	___flmul@prod,0
  3380  062A                     l2845:
  3381  062A  3001               	movlw	1
  3382  062B  00B6               	movwf	??___flmul
  3383  062C                     u4375:
  3384  062C  1003               	clrc
  3385  062D  0DBD               	rlf	___flmul@grs,f
  3386  062E  0DBE               	rlf	___flmul@grs+1,f
  3387  062F  0DBF               	rlf	___flmul@grs+2,f
  3388  0630  0DC0               	rlf	___flmul@grs+3,f
  3389  0631  0BB6               	decfsz	??___flmul,f
  3390  0632  2E2C               	goto	u4375
  3391  0633                     l2847:
  3392  0633  30FF               	movlw	255
  3393  0634  07C6               	addwf	___flmul@temp,f
  3394  0635  1803               	skipnc
  3395  0636  0AC7               	incf	___flmul@temp+1,f
  3396  0637  30FF               	movlw	255
  3397  0638  07C7               	addwf	___flmul@temp+1,f
  3398  0639                     l2849:
  3399  0639  1FC4               	btfss	___flmul@prod+2,7
  3400  063A  2E3C               	goto	u4381
  3401  063B  2E3D               	goto	u4380
  3402  063C                     u4381:
  3403  063C  2E1C               	goto	l2839
  3404  063D                     u4380:
  3405  063D                     l2851:
  3406  063D  01BC               	clrf	___flmul@aexp
  3407  063E                     l2853:
  3408  063E  1FC0               	btfss	___flmul@grs+3,7
  3409  063F  2E41               	goto	u4391
  3410  0640  2E42               	goto	u4390
  3411  0641                     u4391:
  3412  0641  2E5E               	goto	l2861
  3413  0642                     u4390:
  3414  0642                     l2855:
  3415  0642  30FF               	movlw	255
  3416  0643  053D               	andwf	___flmul@grs,w
  3417  0644  00B6               	movwf	??___flmul
  3418  0645  30FF               	movlw	255
  3419  0646  053E               	andwf	___flmul@grs+1,w
  3420  0647  00B7               	movwf	??___flmul+1
  3421  0648  30FF               	movlw	255
  3422  0649  053F               	andwf	___flmul@grs+2,w
  3423  064A  00B8               	movwf	??___flmul+2
  3424  064B  307F               	movlw	127
  3425  064C  0540               	andwf	___flmul@grs+3,w
  3426  064D  00B9               	movwf	??___flmul+3
  3427  064E  0839               	movf	??___flmul+3,w
  3428  064F  0438               	iorwf	??___flmul+2,w
  3429  0650  0437               	iorwf	??___flmul+1,w
  3430  0651  0436               	iorwf	??___flmul,w
  3431  0652  1903               	skipnz
  3432  0653  2E55               	goto	u4401
  3433  0654  2E56               	goto	u4400
  3434  0655                     u4401:
  3435  0655  2E59               	goto	l634
  3436  0656                     u4400:
  3437  0656                     l2857:
  3438  0656  01BC               	clrf	___flmul@aexp
  3439  0657  0ABC               	incf	___flmul@aexp,f
  3440  0658  2E5E               	goto	l2861
  3441  0659                     l634:
  3442  0659  1C42               	btfss	___flmul@prod,0
  3443  065A  2E5C               	goto	u4411
  3444  065B  2E5D               	goto	u4410
  3445  065C                     u4411:
  3446  065C  2E5E               	goto	l2861
  3447  065D                     u4410:
  3448  065D  2E56               	goto	l2857
  3449  065E                     l2861:
  3450  065E  083C               	movf	___flmul@aexp,w
  3451  065F  1903               	btfsc	3,2
  3452  0660  2E62               	goto	u4421
  3453  0661  2E63               	goto	u4420
  3454  0662                     u4421:
  3455  0662  2E94               	goto	l2871
  3456  0663                     u4420:
  3457  0663                     l2863:
  3458  0663  3001               	movlw	1
  3459  0664  07C2               	addwf	___flmul@prod,f
  3460  0665  3000               	movlw	0
  3461  0666  1803               	skipnc
  3462  0667  3001               	movlw	1
  3463  0668  07C3               	addwf	___flmul@prod+1,f
  3464  0669  3000               	movlw	0
  3465  066A  1803               	skipnc
  3466  066B  3001               	movlw	1
  3467  066C  07C4               	addwf	___flmul@prod+2,f
  3468  066D  3000               	movlw	0
  3469  066E  1803               	skipnc
  3470  066F  3001               	movlw	1
  3471  0670  07C5               	addwf	___flmul@prod+3,f
  3472  0671                     l2865:
  3473  0671  1C45               	btfss	___flmul@prod+3,0
  3474  0672  2E74               	goto	u4431
  3475  0673  2E75               	goto	u4430
  3476  0674                     u4431:
  3477  0674  2E94               	goto	l2871
  3478  0675                     u4430:
  3479  0675                     l2867:
  3480  0675  0842               	movf	___flmul@prod,w
  3481  0676  00B6               	movwf	??___flmul
  3482  0677  0843               	movf	___flmul@prod+1,w
  3483  0678  00B7               	movwf	??___flmul+1
  3484  0679  0844               	movf	___flmul@prod+2,w
  3485  067A  00B8               	movwf	??___flmul+2
  3486  067B  0845               	movf	___flmul@prod+3,w
  3487  067C  00B9               	movwf	??___flmul+3
  3488  067D  3001               	movlw	1
  3489  067E  00BA               	movwf	??___flmul+4
  3490  067F                     u4445:
  3491  067F  0D39               	rlf	??___flmul+3,w
  3492  0680  0CB9               	rrf	??___flmul+3,f
  3493  0681  0CB8               	rrf	??___flmul+2,f
  3494  0682  0CB7               	rrf	??___flmul+1,f
  3495  0683  0CB6               	rrf	??___flmul,f
  3496  0684                     u4440:
  3497  0684  0BBA               	decfsz	??___flmul+4,f
  3498  0685  2E7F               	goto	u4445
  3499  0686  0839               	movf	??___flmul+3,w
  3500  0687  00C5               	movwf	___flmul@prod+3
  3501  0688  0838               	movf	??___flmul+2,w
  3502  0689  00C4               	movwf	___flmul@prod+2
  3503  068A  0837               	movf	??___flmul+1,w
  3504  068B  00C3               	movwf	___flmul@prod+1
  3505  068C  0836               	movf	??___flmul,w
  3506  068D  00C2               	movwf	___flmul@prod
  3507  068E                     l2869:
  3508  068E  3001               	movlw	1
  3509  068F  07C6               	addwf	___flmul@temp,f
  3510  0690  1803               	skipnc
  3511  0691  0AC7               	incf	___flmul@temp+1,f
  3512  0692  3000               	movlw	0
  3513  0693  07C7               	addwf	___flmul@temp+1,f
  3514  0694                     l2871:
  3515  0694  0847               	movf	___flmul@temp+1,w
  3516  0695  3A80               	xorlw	128
  3517  0696  00FF               	movwf	btemp+1
  3518  0697  3080               	movlw	128
  3519  0698  027F               	subwf	btemp+1,w
  3520  0699  1D03               	skipz
  3521  069A  2E9D               	goto	u4455
  3522  069B  30FF               	movlw	255
  3523  069C  0246               	subwf	___flmul@temp,w
  3524  069D                     u4455:
  3525  069D  1C03               	skipc
  3526  069E  2EA0               	goto	u4451
  3527  069F  2EA1               	goto	u4450
  3528  06A0                     u4451:
  3529  06A0  2EAC               	goto	l2875
  3530  06A1                     u4450:
  3531  06A1                     l2873:
  3532  06A1  307F               	movlw	127
  3533  06A2  1283               	bcf	3,5	;RP0=0, select bank0
  3534  06A3  1303               	bcf	3,6	;RP1=0, select bank0
  3535  06A4  00C5               	movwf	___flmul@prod+3
  3536  06A5  3080               	movlw	128
  3537  06A6  00C4               	movwf	___flmul@prod+2
  3538  06A7  3000               	movlw	0
  3539  06A8  00C3               	movwf	___flmul@prod+1
  3540  06A9  3000               	movlw	0
  3541  06AA  00C2               	movwf	___flmul@prod
  3542  06AB  2EE1               	goto	l640
  3543  06AC                     l2875:
  3544  06AC  1283               	bcf	3,5	;RP0=0, select bank0
  3545  06AD  1303               	bcf	3,6	;RP1=0, select bank0
  3546  06AE  0847               	movf	___flmul@temp+1,w
  3547  06AF  3A80               	xorlw	128
  3548  06B0  00FF               	movwf	btemp+1
  3549  06B1  3080               	movlw	128
  3550  06B2  027F               	subwf	btemp+1,w
  3551  06B3  1D03               	skipz
  3552  06B4  2EB7               	goto	u4465
  3553  06B5  3001               	movlw	1
  3554  06B6  0246               	subwf	___flmul@temp,w
  3555  06B7                     u4465:
  3556  06B7  1803               	skipnc
  3557  06B8  2EBA               	goto	u4461
  3558  06B9  2EBB               	goto	u4460
  3559  06BA                     u4461:
  3560  06BA  2EC7               	goto	l2881
  3561  06BB                     u4460:
  3562  06BB                     l2877:
  3563  06BB  3000               	movlw	0
  3564  06BC  1283               	bcf	3,5	;RP0=0, select bank0
  3565  06BD  1303               	bcf	3,6	;RP1=0, select bank0
  3566  06BE  00C5               	movwf	___flmul@prod+3
  3567  06BF  3000               	movlw	0
  3568  06C0  00C4               	movwf	___flmul@prod+2
  3569  06C1  3000               	movlw	0
  3570  06C2  00C3               	movwf	___flmul@prod+1
  3571  06C3  3000               	movlw	0
  3572  06C4  00C2               	movwf	___flmul@prod
  3573  06C5                     l2879:
  3574  06C5  01BB               	clrf	___flmul@sign
  3575  06C6  2EE1               	goto	l640
  3576  06C7                     l2881:
  3577  06C7  1283               	bcf	3,5	;RP0=0, select bank0
  3578  06C8  1303               	bcf	3,6	;RP1=0, select bank0
  3579  06C9  0846               	movf	___flmul@temp,w
  3580  06CA  00B6               	movwf	??___flmul
  3581  06CB  0836               	movf	??___flmul,w
  3582  06CC  00C1               	movwf	___flmul@bexp
  3583  06CD  30FF               	movlw	255
  3584  06CE  05C2               	andwf	___flmul@prod,f
  3585  06CF  30FF               	movlw	255
  3586  06D0  05C3               	andwf	___flmul@prod+1,f
  3587  06D1  307F               	movlw	127
  3588  06D2  05C4               	andwf	___flmul@prod+2,f
  3589  06D3  3000               	movlw	0
  3590  06D4  05C5               	andwf	___flmul@prod+3,f
  3591  06D5                     l2883:
  3592  06D5  1C41               	btfss	___flmul@bexp,0
  3593  06D6  2ED8               	goto	u4471
  3594  06D7  2ED9               	goto	u4470
  3595  06D8                     u4471:
  3596  06D8  2EDA               	goto	l2887
  3597  06D9                     u4470:
  3598  06D9                     l2885:
  3599  06D9  17C4               	bsf	___flmul@prod+2,7
  3600  06DA                     l2887:
  3601  06DA  0841               	movf	___flmul@bexp,w
  3602  06DB  00B6               	movwf	??___flmul
  3603  06DC  1003               	clrc
  3604  06DD  0C36               	rrf	??___flmul,w
  3605  06DE  00B7               	movwf	??___flmul+1
  3606  06DF  0837               	movf	??___flmul+1,w
  3607  06E0  00C5               	movwf	___flmul@prod+3
  3608  06E1                     l640:
  3609  06E1  083B               	movf	___flmul@sign,w
  3610  06E2  00B6               	movwf	??___flmul
  3611  06E3  0836               	movf	??___flmul,w
  3612  06E4  04C5               	iorwf	___flmul@prod+3,f
  3613  06E5                     l2889:
  3614  06E5  0845               	movf	___flmul@prod+3,w
  3615  06E6  00B1               	movwf	?___flmul+3
  3616  06E7  0844               	movf	___flmul@prod+2,w
  3617  06E8  00B0               	movwf	?___flmul+2
  3618  06E9  0843               	movf	___flmul@prod+1,w
  3619  06EA  00AF               	movwf	?___flmul+1
  3620  06EB  0842               	movf	___flmul@prod,w
  3621  06EC  00AE               	movwf	?___flmul
  3622  06ED                     l628:
  3623  06ED  0008               	return
  3624  06EE                     __end_of___flmul:
  3625                           
  3626                           	psect	text8
  3627  17D7                     __ptext8:	
  3628 ;; *************** function __Umul8_16 *****************
  3629 ;; Defined at:
  3630 ;;		line 4 in file "C:\Program Files\Microchip\xc8\v2.32\pic\sources\c90\common\Umul8_16.c"
  3631 ;; Parameters:    Size  Location     Type
  3632 ;;  multiplier      1    wreg     unsigned char 
  3633 ;;  multiplicand    1    4[COMMON] unsigned char 
  3634 ;; Auto vars:     Size  Location     Type
  3635 ;;  multiplier      1    6[BANK0 ] unsigned char 
  3636 ;;  word_mpld       2    4[BANK0 ] unsigned int 
  3637 ;;  product         2    2[BANK0 ] unsigned int 
  3638 ;; Return value:  Size  Location     Type
  3639 ;;                  2    4[COMMON] unsigned int 
  3640 ;; Registers used:
  3641 ;;		wreg, status,2, status,0
  3642 ;; Tracked objects:
  3643 ;;		On entry : 0/0
  3644 ;;		On exit  : 0/0
  3645 ;;		Unchanged: 0/0
  3646 ;; Data sizes:     COMMON   BANK0   BANK1   BANK3   BANK2
  3647 ;;      Params:         2       0       0       0       0
  3648 ;;      Locals:         0       5       0       0       0
  3649 ;;      Temps:          0       2       0       0       0
  3650 ;;      Totals:         2       7       0       0       0
  3651 ;;Total ram usage:        9 bytes
  3652 ;; Hardware stack levels used: 1
  3653 ;; Hardware stack levels required when called: 1
  3654 ;; This function calls:
  3655 ;;		Nothing
  3656 ;; This function is called by:
  3657 ;;		___flmul
  3658 ;; This function uses a non-reentrant model
  3659 ;;
  3660                           
  3661                           
  3662                           ;psect for function __Umul8_16
  3663  17D7                     __Umul8_16:
  3664                           
  3665                           ;incstack = 0
  3666                           ; Regs used in __Umul8_16: [wreg+status,2+status,0]
  3667                           ;__Umul8_16@multiplier stored from wreg
  3668  17D7  1283               	bcf	3,5	;RP0=0, select bank0
  3669  17D8  1303               	bcf	3,6	;RP1=0, select bank0
  3670  17D9  00A6               	movwf	__Umul8_16@multiplier
  3671  17DA                     l2451:
  3672  17DA  01A2               	clrf	__Umul8_16@product
  3673  17DB  01A3               	clrf	__Umul8_16@product+1
  3674  17DC                     l2453:
  3675  17DC  0874               	movf	__Umul8_16@multiplicand,w
  3676  17DD  00A0               	movwf	??__Umul8_16
  3677  17DE  01A1               	clrf	??__Umul8_16+1
  3678  17DF  0820               	movf	??__Umul8_16,w
  3679  17E0  00A4               	movwf	__Umul8_16@word_mpld
  3680  17E1  0821               	movf	??__Umul8_16+1,w
  3681  17E2  00A5               	movwf	__Umul8_16@word_mpld+1
  3682  17E3                     l2455:
  3683  17E3  1C26               	btfss	__Umul8_16@multiplier,0
  3684  17E4  2FE6               	goto	u3411
  3685  17E5  2FE7               	goto	u3410
  3686  17E6                     u3411:
  3687  17E6  2FED               	goto	l647
  3688  17E7                     u3410:
  3689  17E7                     l2457:
  3690  17E7  0824               	movf	__Umul8_16@word_mpld,w
  3691  17E8  07A2               	addwf	__Umul8_16@product,f
  3692  17E9  1803               	skipnc
  3693  17EA  0AA3               	incf	__Umul8_16@product+1,f
  3694  17EB  0825               	movf	__Umul8_16@word_mpld+1,w
  3695  17EC  07A3               	addwf	__Umul8_16@product+1,f
  3696  17ED                     l647:
  3697  17ED  3001               	movlw	1
  3698  17EE                     u3425:
  3699  17EE  1003               	clrc
  3700  17EF  0DA4               	rlf	__Umul8_16@word_mpld,f
  3701  17F0  0DA5               	rlf	__Umul8_16@word_mpld+1,f
  3702  17F1  3EFF               	addlw	-1
  3703  17F2  1D03               	skipz
  3704  17F3  2FEE               	goto	u3425
  3705  17F4  1003               	clrc
  3706  17F5  0CA6               	rrf	__Umul8_16@multiplier,f
  3707  17F6                     l2459:
  3708  17F6  0826               	movf	__Umul8_16@multiplier,w
  3709  17F7  1D03               	btfss	3,2
  3710  17F8  2FFA               	goto	u3431
  3711  17F9  2FFB               	goto	u3430
  3712  17FA                     u3431:
  3713  17FA  2FE3               	goto	l2455
  3714  17FB                     u3430:
  3715  17FB                     l2461:
  3716  17FB  0823               	movf	__Umul8_16@product+1,w
  3717  17FC  00F5               	movwf	?__Umul8_16+1
  3718  17FD  0822               	movf	__Umul8_16@product,w
  3719  17FE  00F4               	movwf	?__Umul8_16
  3720  17FF                     l649:
  3721  17FF  0008               	return
  3722  1800                     __end_of__Umul8_16:
  3723                           
  3724                           	psect	text9
  3725  0B54                     __ptext9:	
  3726 ;; *************** function ___fldiv *****************
  3727 ;; Defined at:
  3728 ;;		line 8 in file "C:\Program Files\Microchip\xc8\v2.32\pic\sources\c90\common\sprcdiv.c"
  3729 ;; Parameters:    Size  Location     Type
  3730 ;;  a               4   40[BANK0 ] unsigned int 
  3731 ;;  b               4   44[BANK0 ] unsigned int 
  3732 ;; Auto vars:     Size  Location     Type
  3733 ;;  grs             4   60[BANK0 ] unsigned long 
  3734 ;;  rem             4   53[BANK0 ] unsigned long 
  3735 ;;  new_exp         2   58[BANK0 ] int 
  3736 ;;  aexp            1   65[BANK0 ] unsigned char 
  3737 ;;  bexp            1   64[BANK0 ] unsigned char 
  3738 ;;  sign            1   57[BANK0 ] unsigned char 
  3739 ;; Return value:  Size  Location     Type
  3740 ;;                  4   40[BANK0 ] unsigned char 
  3741 ;; Registers used:
  3742 ;;		wreg, status,2, status,0, btemp+1
  3743 ;; Tracked objects:
  3744 ;;		On entry : 0/0
  3745 ;;		On exit  : 0/0
  3746 ;;		Unchanged: 0/0
  3747 ;; Data sizes:     COMMON   BANK0   BANK1   BANK3   BANK2
  3748 ;;      Params:         0       8       0       0       0
  3749 ;;      Locals:         0      13       0       0       0
  3750 ;;      Temps:          0       5       0       0       0
  3751 ;;      Totals:         0      26       0       0       0
  3752 ;;Total ram usage:       26 bytes
  3753 ;; Hardware stack levels used: 1
  3754 ;; Hardware stack levels required when called: 1
  3755 ;; This function calls:
  3756 ;;		Nothing
  3757 ;; This function is called by:
  3758 ;;		_dista_cal
  3759 ;; This function uses a non-reentrant model
  3760 ;;
  3761                           
  3762                           
  3763                           ;psect for function ___fldiv
  3764  0B54                     ___fldiv:
  3765  0B54                     l1949:	
  3766                           ;incstack = 0
  3767                           ; Regs used in ___fldiv: [wreg+status,2+status,0+btemp+1]
  3768                           
  3769  0B54  1283               	bcf	3,5	;RP0=0, select bank0
  3770  0B55  1303               	bcf	3,6	;RP1=0, select bank0
  3771  0B56  084F               	movf	___fldiv@b+3,w
  3772  0B57  3980               	andlw	128
  3773  0B58  00D0               	movwf	??___fldiv
  3774  0B59  0850               	movf	??___fldiv,w
  3775  0B5A  00D9               	movwf	___fldiv@sign
  3776  0B5B                     l1951:
  3777  0B5B  084F               	movf	___fldiv@b+3,w
  3778  0B5C  00D0               	movwf	??___fldiv
  3779  0B5D  0750               	addwf	??___fldiv,w
  3780  0B5E  00D1               	movwf	??___fldiv+1
  3781  0B5F  0851               	movf	??___fldiv+1,w
  3782  0B60  00E0               	movwf	___fldiv@bexp
  3783  0B61                     l1953:
  3784  0B61  1FCE               	btfss	___fldiv@b+2,7
  3785  0B62  2B64               	goto	u2501
  3786  0B63  2B65               	goto	u2500
  3787  0B64                     u2501:
  3788  0B64  2B66               	goto	l1957
  3789  0B65                     u2500:
  3790  0B65                     l1955:
  3791  0B65  1460               	bsf	___fldiv@bexp,0
  3792  0B66                     l1957:
  3793  0B66  0860               	movf	___fldiv@bexp,w
  3794  0B67  1903               	btfsc	3,2
  3795  0B68  2B6A               	goto	u2511
  3796  0B69  2B6B               	goto	u2510
  3797  0B6A                     u2511:
  3798  0B6A  2B7B               	goto	l1967
  3799  0B6B                     u2510:
  3800  0B6B                     l1959:
  3801  0B6B  0A60               	incf	___fldiv@bexp,w
  3802  0B6C  1D03               	btfss	3,2
  3803  0B6D  2B6F               	goto	u2521
  3804  0B6E  2B70               	goto	u2520
  3805  0B6F                     u2521:
  3806  0B6F  2B78               	goto	l1963
  3807  0B70                     u2520:
  3808  0B70                     l1961:
  3809  0B70  3000               	movlw	0
  3810  0B71  00CF               	movwf	___fldiv@b+3
  3811  0B72  3000               	movlw	0
  3812  0B73  00CE               	movwf	___fldiv@b+2
  3813  0B74  3000               	movlw	0
  3814  0B75  00CD               	movwf	___fldiv@b+1
  3815  0B76  3000               	movlw	0
  3816  0B77  00CC               	movwf	___fldiv@b
  3817  0B78                     l1963:
  3818  0B78  17CE               	bsf	___fldiv@b+2,7
  3819  0B79                     l1965:
  3820  0B79  01CF               	clrf	___fldiv@b+3
  3821  0B7A  2B83               	goto	l1969
  3822  0B7B                     l1967:
  3823  0B7B  3000               	movlw	0
  3824  0B7C  00CF               	movwf	___fldiv@b+3
  3825  0B7D  3000               	movlw	0
  3826  0B7E  00CE               	movwf	___fldiv@b+2
  3827  0B7F  3000               	movlw	0
  3828  0B80  00CD               	movwf	___fldiv@b+1
  3829  0B81  3000               	movlw	0
  3830  0B82  00CC               	movwf	___fldiv@b
  3831  0B83                     l1969:
  3832  0B83  084B               	movf	___fldiv@a+3,w
  3833  0B84  3980               	andlw	128
  3834  0B85  00D0               	movwf	??___fldiv
  3835  0B86  0850               	movf	??___fldiv,w
  3836  0B87  06D9               	xorwf	___fldiv@sign,f
  3837  0B88                     l1971:
  3838  0B88  084B               	movf	___fldiv@a+3,w
  3839  0B89  00D0               	movwf	??___fldiv
  3840  0B8A  0750               	addwf	??___fldiv,w
  3841  0B8B  00D1               	movwf	??___fldiv+1
  3842  0B8C  0851               	movf	??___fldiv+1,w
  3843  0B8D  00E1               	movwf	___fldiv@aexp
  3844  0B8E                     l1973:
  3845  0B8E  1FCA               	btfss	___fldiv@a+2,7
  3846  0B8F  2B91               	goto	u2531
  3847  0B90  2B92               	goto	u2530
  3848  0B91                     u2531:
  3849  0B91  2B93               	goto	l1977
  3850  0B92                     u2530:
  3851  0B92                     l1975:
  3852  0B92  1461               	bsf	___fldiv@aexp,0
  3853  0B93                     l1977:
  3854  0B93  0861               	movf	___fldiv@aexp,w
  3855  0B94  1903               	btfsc	3,2
  3856  0B95  2B97               	goto	u2541
  3857  0B96  2B98               	goto	u2540
  3858  0B97                     u2541:
  3859  0B97  2BA8               	goto	l1987
  3860  0B98                     u2540:
  3861  0B98                     l1979:
  3862  0B98  0A61               	incf	___fldiv@aexp,w
  3863  0B99  1D03               	btfss	3,2
  3864  0B9A  2B9C               	goto	u2551
  3865  0B9B  2B9D               	goto	u2550
  3866  0B9C                     u2551:
  3867  0B9C  2BA5               	goto	l1983
  3868  0B9D                     u2550:
  3869  0B9D                     l1981:
  3870  0B9D  3000               	movlw	0
  3871  0B9E  00CB               	movwf	___fldiv@a+3
  3872  0B9F  3000               	movlw	0
  3873  0BA0  00CA               	movwf	___fldiv@a+2
  3874  0BA1  3000               	movlw	0
  3875  0BA2  00C9               	movwf	___fldiv@a+1
  3876  0BA3  3000               	movlw	0
  3877  0BA4  00C8               	movwf	___fldiv@a
  3878  0BA5                     l1983:
  3879  0BA5  17CA               	bsf	___fldiv@a+2,7
  3880  0BA6                     l1985:
  3881  0BA6  01CB               	clrf	___fldiv@a+3
  3882  0BA7  2BB0               	goto	l588
  3883  0BA8                     l1987:
  3884  0BA8  3000               	movlw	0
  3885  0BA9  00CB               	movwf	___fldiv@a+3
  3886  0BAA  3000               	movlw	0
  3887  0BAB  00CA               	movwf	___fldiv@a+2
  3888  0BAC  3000               	movlw	0
  3889  0BAD  00C9               	movwf	___fldiv@a+1
  3890  0BAE  3000               	movlw	0
  3891  0BAF  00C8               	movwf	___fldiv@a
  3892  0BB0                     l588:
  3893  0BB0  084B               	movf	___fldiv@a+3,w
  3894  0BB1  044A               	iorwf	___fldiv@a+2,w
  3895  0BB2  0449               	iorwf	___fldiv@a+1,w
  3896  0BB3  0448               	iorwf	___fldiv@a,w
  3897  0BB4  1D03               	skipz
  3898  0BB5  2BB7               	goto	u2561
  3899  0BB6  2BB8               	goto	u2560
  3900  0BB7                     u2561:
  3901  0BB7  2BD1               	goto	l1997
  3902  0BB8                     u2560:
  3903  0BB8                     l1989:
  3904  0BB8  3000               	movlw	0
  3905  0BB9  00CF               	movwf	___fldiv@b+3
  3906  0BBA  3000               	movlw	0
  3907  0BBB  00CE               	movwf	___fldiv@b+2
  3908  0BBC  3000               	movlw	0
  3909  0BBD  00CD               	movwf	___fldiv@b+1
  3910  0BBE  3000               	movlw	0
  3911  0BBF  00CC               	movwf	___fldiv@b
  3912  0BC0  3080               	movlw	128
  3913  0BC1  04CE               	iorwf	___fldiv@b+2,f
  3914  0BC2  307F               	movlw	127
  3915  0BC3  04CF               	iorwf	___fldiv@b+3,f
  3916  0BC4                     l1991:
  3917  0BC4  0859               	movf	___fldiv@sign,w
  3918  0BC5  00D0               	movwf	??___fldiv
  3919  0BC6  0850               	movf	??___fldiv,w
  3920  0BC7  04CF               	iorwf	___fldiv@b+3,f
  3921  0BC8                     l1993:
  3922  0BC8  084F               	movf	___fldiv@b+3,w
  3923  0BC9  00CB               	movwf	?___fldiv+3
  3924  0BCA  084E               	movf	___fldiv@b+2,w
  3925  0BCB  00CA               	movwf	?___fldiv+2
  3926  0BCC  084D               	movf	___fldiv@b+1,w
  3927  0BCD  00C9               	movwf	?___fldiv+1
  3928  0BCE  084C               	movf	___fldiv@b,w
  3929  0BCF  00C8               	movwf	?___fldiv
  3930  0BD0  2D30               	goto	l590
  3931  0BD1                     l1997:
  3932  0BD1  0860               	movf	___fldiv@bexp,w
  3933  0BD2  1D03               	btfss	3,2
  3934  0BD3  2BD5               	goto	u2571
  3935  0BD4  2BD6               	goto	u2570
  3936  0BD5                     u2571:
  3937  0BD5  2BDF               	goto	l2003
  3938  0BD6                     u2570:
  3939  0BD6                     l1999:
  3940  0BD6  3000               	movlw	0
  3941  0BD7  00CB               	movwf	?___fldiv+3
  3942  0BD8  3000               	movlw	0
  3943  0BD9  00CA               	movwf	?___fldiv+2
  3944  0BDA  3000               	movlw	0
  3945  0BDB  00C9               	movwf	?___fldiv+1
  3946  0BDC  3000               	movlw	0
  3947  0BDD  00C8               	movwf	?___fldiv
  3948  0BDE  2D30               	goto	l590
  3949  0BDF                     l2003:
  3950  0BDF  0860               	movf	___fldiv@bexp,w
  3951  0BE0  00D0               	movwf	??___fldiv
  3952  0BE1  01D1               	clrf	??___fldiv+1
  3953  0BE2  0851               	movf	??___fldiv+1,w
  3954  0BE3  00D3               	movwf	??___fldiv+3
  3955  0BE4  0861               	movf	___fldiv@aexp,w
  3956  0BE5  0250               	subwf	??___fldiv,w
  3957  0BE6  00D2               	movwf	??___fldiv+2
  3958  0BE7  1C03               	skipc
  3959  0BE8  03D3               	decf	??___fldiv+3,f
  3960  0BE9  0852               	movf	??___fldiv+2,w
  3961  0BEA  3E7F               	addlw	127
  3962  0BEB  00DA               	movwf	___fldiv@new_exp
  3963  0BEC  0853               	movf	??___fldiv+3,w
  3964  0BED  1803               	skipnc
  3965  0BEE  3E01               	addlw	1
  3966  0BEF  3E00               	addlw	0
  3967  0BF0  00DB               	movwf	___fldiv@new_exp+1
  3968  0BF1                     l2005:
  3969  0BF1  084F               	movf	___fldiv@b+3,w
  3970  0BF2  00D8               	movwf	___fldiv@rem+3
  3971  0BF3  084E               	movf	___fldiv@b+2,w
  3972  0BF4  00D7               	movwf	___fldiv@rem+2
  3973  0BF5  084D               	movf	___fldiv@b+1,w
  3974  0BF6  00D6               	movwf	___fldiv@rem+1
  3975  0BF7  084C               	movf	___fldiv@b,w
  3976  0BF8  00D5               	movwf	___fldiv@rem
  3977  0BF9                     l2007:
  3978  0BF9  3000               	movlw	0
  3979  0BFA  00CF               	movwf	___fldiv@b+3
  3980  0BFB  3000               	movlw	0
  3981  0BFC  00CE               	movwf	___fldiv@b+2
  3982  0BFD  3000               	movlw	0
  3983  0BFE  00CD               	movwf	___fldiv@b+1
  3984  0BFF  3000               	movlw	0
  3985  0C00  00CC               	movwf	___fldiv@b
  3986  0C01                     l2009:
  3987  0C01  3000               	movlw	0
  3988  0C02  00DF               	movwf	___fldiv@grs+3
  3989  0C03  3000               	movlw	0
  3990  0C04  00DE               	movwf	___fldiv@grs+2
  3991  0C05  3000               	movlw	0
  3992  0C06  00DD               	movwf	___fldiv@grs+1
  3993  0C07  3000               	movlw	0
  3994  0C08  00DC               	movwf	___fldiv@grs
  3995  0C09                     l2011:
  3996  0C09  01E1               	clrf	___fldiv@aexp
  3997  0C0A  2C55               	goto	l2031
  3998  0C0B                     l2013:
  3999  0C0B  0861               	movf	___fldiv@aexp,w
  4000  0C0C  1903               	btfsc	3,2
  4001  0C0D  2C0F               	goto	u2581
  4002  0C0E  2C10               	goto	u2580
  4003  0C0F                     u2581:
  4004  0C0F  2C30               	goto	l2023
  4005  0C10                     u2580:
  4006  0C10                     l2015:
  4007  0C10  3001               	movlw	1
  4008  0C11  00D0               	movwf	??___fldiv
  4009  0C12                     u2595:
  4010  0C12  1003               	clrc
  4011  0C13  0DD5               	rlf	___fldiv@rem,f
  4012  0C14  0DD6               	rlf	___fldiv@rem+1,f
  4013  0C15  0DD7               	rlf	___fldiv@rem+2,f
  4014  0C16  0DD8               	rlf	___fldiv@rem+3,f
  4015  0C17  0BD0               	decfsz	??___fldiv,f
  4016  0C18  2C12               	goto	u2595
  4017  0C19  3001               	movlw	1
  4018  0C1A  00D0               	movwf	??___fldiv
  4019  0C1B                     u2605:
  4020  0C1B  1003               	clrc
  4021  0C1C  0DCC               	rlf	___fldiv@b,f
  4022  0C1D  0DCD               	rlf	___fldiv@b+1,f
  4023  0C1E  0DCE               	rlf	___fldiv@b+2,f
  4024  0C1F  0DCF               	rlf	___fldiv@b+3,f
  4025  0C20  0BD0               	decfsz	??___fldiv,f
  4026  0C21  2C1B               	goto	u2605
  4027  0C22                     l2017:
  4028  0C22  1FDF               	btfss	___fldiv@grs+3,7
  4029  0C23  2C25               	goto	u2611
  4030  0C24  2C26               	goto	u2610
  4031  0C25                     u2611:
  4032  0C25  2C27               	goto	l2021
  4033  0C26                     u2610:
  4034  0C26                     l2019:
  4035  0C26  144C               	bsf	___fldiv@b,0
  4036  0C27                     l2021:
  4037  0C27  3001               	movlw	1
  4038  0C28  00D0               	movwf	??___fldiv
  4039  0C29                     u2625:
  4040  0C29  1003               	clrc
  4041  0C2A  0DDC               	rlf	___fldiv@grs,f
  4042  0C2B  0DDD               	rlf	___fldiv@grs+1,f
  4043  0C2C  0DDE               	rlf	___fldiv@grs+2,f
  4044  0C2D  0DDF               	rlf	___fldiv@grs+3,f
  4045  0C2E  0BD0               	decfsz	??___fldiv,f
  4046  0C2F  2C29               	goto	u2625
  4047  0C30                     l2023:
  4048  0C30  084B               	movf	___fldiv@a+3,w
  4049  0C31  0258               	subwf	___fldiv@rem+3,w
  4050  0C32  1D03               	skipz
  4051  0C33  2C3E               	goto	u2635
  4052  0C34  084A               	movf	___fldiv@a+2,w
  4053  0C35  0257               	subwf	___fldiv@rem+2,w
  4054  0C36  1D03               	skipz
  4055  0C37  2C3E               	goto	u2635
  4056  0C38  0849               	movf	___fldiv@a+1,w
  4057  0C39  0256               	subwf	___fldiv@rem+1,w
  4058  0C3A  1D03               	skipz
  4059  0C3B  2C3E               	goto	u2635
  4060  0C3C  0848               	movf	___fldiv@a,w
  4061  0C3D  0255               	subwf	___fldiv@rem,w
  4062  0C3E                     u2635:
  4063  0C3E  1C03               	skipc
  4064  0C3F  2C41               	goto	u2631
  4065  0C40  2C42               	goto	u2630
  4066  0C41                     u2631:
  4067  0C41  2C51               	goto	l2029
  4068  0C42                     u2630:
  4069  0C42                     l2025:
  4070  0C42  175F               	bsf	___fldiv@grs+3,6
  4071  0C43                     l2027:
  4072  0C43  0848               	movf	___fldiv@a,w
  4073  0C44  02D5               	subwf	___fldiv@rem,f
  4074  0C45  0849               	movf	___fldiv@a+1,w
  4075  0C46  1C03               	skipc
  4076  0C47  0F49               	incfsz	___fldiv@a+1,w
  4077  0C48  02D6               	subwf	___fldiv@rem+1,f
  4078  0C49  084A               	movf	___fldiv@a+2,w
  4079  0C4A  1C03               	skipc
  4080  0C4B  0F4A               	incfsz	___fldiv@a+2,w
  4081  0C4C  02D7               	subwf	___fldiv@rem+2,f
  4082  0C4D  084B               	movf	___fldiv@a+3,w
  4083  0C4E  1C03               	skipc
  4084  0C4F  0F4B               	incfsz	___fldiv@a+3,w
  4085  0C50  02D8               	subwf	___fldiv@rem+3,f
  4086  0C51                     l2029:
  4087  0C51  3001               	movlw	1
  4088  0C52  00D0               	movwf	??___fldiv
  4089  0C53  0850               	movf	??___fldiv,w
  4090  0C54  07E1               	addwf	___fldiv@aexp,f
  4091  0C55                     l2031:
  4092  0C55  301A               	movlw	26
  4093  0C56  0261               	subwf	___fldiv@aexp,w
  4094  0C57  1C03               	skipc
  4095  0C58  2C5A               	goto	u2641
  4096  0C59  2C5B               	goto	u2640
  4097  0C5A                     u2641:
  4098  0C5A  2C0B               	goto	l2013
  4099  0C5B                     u2640:
  4100  0C5B                     l2033:
  4101  0C5B  0858               	movf	___fldiv@rem+3,w
  4102  0C5C  0457               	iorwf	___fldiv@rem+2,w
  4103  0C5D  0456               	iorwf	___fldiv@rem+1,w
  4104  0C5E  0455               	iorwf	___fldiv@rem,w
  4105  0C5F  1903               	skipnz
  4106  0C60  2C62               	goto	u2651
  4107  0C61  2C63               	goto	u2650
  4108  0C62                     u2651:
  4109  0C62  2C82               	goto	l2047
  4110  0C63                     u2650:
  4111  0C63                     l2035:
  4112  0C63  145C               	bsf	___fldiv@grs,0
  4113  0C64  2C82               	goto	l2047
  4114  0C65                     l2037:
  4115  0C65  3001               	movlw	1
  4116  0C66  00D0               	movwf	??___fldiv
  4117  0C67                     u2665:
  4118  0C67  1003               	clrc
  4119  0C68  0DCC               	rlf	___fldiv@b,f
  4120  0C69  0DCD               	rlf	___fldiv@b+1,f
  4121  0C6A  0DCE               	rlf	___fldiv@b+2,f
  4122  0C6B  0DCF               	rlf	___fldiv@b+3,f
  4123  0C6C  0BD0               	decfsz	??___fldiv,f
  4124  0C6D  2C67               	goto	u2665
  4125  0C6E                     l2039:
  4126  0C6E  1FDF               	btfss	___fldiv@grs+3,7
  4127  0C6F  2C71               	goto	u2671
  4128  0C70  2C72               	goto	u2670
  4129  0C71                     u2671:
  4130  0C71  2C73               	goto	l2043
  4131  0C72                     u2670:
  4132  0C72                     l2041:
  4133  0C72  144C               	bsf	___fldiv@b,0
  4134  0C73                     l2043:
  4135  0C73  3001               	movlw	1
  4136  0C74  00D0               	movwf	??___fldiv
  4137  0C75                     u2685:
  4138  0C75  1003               	clrc
  4139  0C76  0DDC               	rlf	___fldiv@grs,f
  4140  0C77  0DDD               	rlf	___fldiv@grs+1,f
  4141  0C78  0DDE               	rlf	___fldiv@grs+2,f
  4142  0C79  0DDF               	rlf	___fldiv@grs+3,f
  4143  0C7A  0BD0               	decfsz	??___fldiv,f
  4144  0C7B  2C75               	goto	u2685
  4145  0C7C                     l2045:
  4146  0C7C  30FF               	movlw	255
  4147  0C7D  07DA               	addwf	___fldiv@new_exp,f
  4148  0C7E  1803               	skipnc
  4149  0C7F  0ADB               	incf	___fldiv@new_exp+1,f
  4150  0C80  30FF               	movlw	255
  4151  0C81  07DB               	addwf	___fldiv@new_exp+1,f
  4152  0C82                     l2047:
  4153  0C82  1FCE               	btfss	___fldiv@b+2,7
  4154  0C83  2C85               	goto	u2691
  4155  0C84  2C86               	goto	u2690
  4156  0C85                     u2691:
  4157  0C85  2C65               	goto	l2037
  4158  0C86                     u2690:
  4159  0C86                     l2049:
  4160  0C86  01E1               	clrf	___fldiv@aexp
  4161  0C87                     l2051:
  4162  0C87  1FDF               	btfss	___fldiv@grs+3,7
  4163  0C88  2C8A               	goto	u2701
  4164  0C89  2C8B               	goto	u2700
  4165  0C8A                     u2701:
  4166  0C8A  2CA7               	goto	l2059
  4167  0C8B                     u2700:
  4168  0C8B                     l2053:
  4169  0C8B  30FF               	movlw	255
  4170  0C8C  055C               	andwf	___fldiv@grs,w
  4171  0C8D  00D0               	movwf	??___fldiv
  4172  0C8E  30FF               	movlw	255
  4173  0C8F  055D               	andwf	___fldiv@grs+1,w
  4174  0C90  00D1               	movwf	??___fldiv+1
  4175  0C91  30FF               	movlw	255
  4176  0C92  055E               	andwf	___fldiv@grs+2,w
  4177  0C93  00D2               	movwf	??___fldiv+2
  4178  0C94  307F               	movlw	127
  4179  0C95  055F               	andwf	___fldiv@grs+3,w
  4180  0C96  00D3               	movwf	??___fldiv+3
  4181  0C97  0853               	movf	??___fldiv+3,w
  4182  0C98  0452               	iorwf	??___fldiv+2,w
  4183  0C99  0451               	iorwf	??___fldiv+1,w
  4184  0C9A  0450               	iorwf	??___fldiv,w
  4185  0C9B  1903               	skipnz
  4186  0C9C  2C9E               	goto	u2711
  4187  0C9D  2C9F               	goto	u2710
  4188  0C9E                     u2711:
  4189  0C9E  2CA2               	goto	l604
  4190  0C9F                     u2710:
  4191  0C9F                     l2055:
  4192  0C9F  01E1               	clrf	___fldiv@aexp
  4193  0CA0  0AE1               	incf	___fldiv@aexp,f
  4194  0CA1  2CA7               	goto	l2059
  4195  0CA2                     l604:
  4196  0CA2  1C4C               	btfss	___fldiv@b,0
  4197  0CA3  2CA5               	goto	u2721
  4198  0CA4  2CA6               	goto	u2720
  4199  0CA5                     u2721:
  4200  0CA5  2CA7               	goto	l2059
  4201  0CA6                     u2720:
  4202  0CA6  2C9F               	goto	l2055
  4203  0CA7                     l2059:
  4204  0CA7  0861               	movf	___fldiv@aexp,w
  4205  0CA8  1903               	btfsc	3,2
  4206  0CA9  2CAB               	goto	u2731
  4207  0CAA  2CAC               	goto	u2730
  4208  0CAB                     u2731:
  4209  0CAB  2CDD               	goto	l2069
  4210  0CAC                     u2730:
  4211  0CAC                     l2061:
  4212  0CAC  3001               	movlw	1
  4213  0CAD  07CC               	addwf	___fldiv@b,f
  4214  0CAE  3000               	movlw	0
  4215  0CAF  1803               	skipnc
  4216  0CB0  3001               	movlw	1
  4217  0CB1  07CD               	addwf	___fldiv@b+1,f
  4218  0CB2  3000               	movlw	0
  4219  0CB3  1803               	skipnc
  4220  0CB4  3001               	movlw	1
  4221  0CB5  07CE               	addwf	___fldiv@b+2,f
  4222  0CB6  3000               	movlw	0
  4223  0CB7  1803               	skipnc
  4224  0CB8  3001               	movlw	1
  4225  0CB9  07CF               	addwf	___fldiv@b+3,f
  4226  0CBA                     l2063:
  4227  0CBA  1C4F               	btfss	___fldiv@b+3,0
  4228  0CBB  2CBD               	goto	u2741
  4229  0CBC  2CBE               	goto	u2740
  4230  0CBD                     u2741:
  4231  0CBD  2CDD               	goto	l2069
  4232  0CBE                     u2740:
  4233  0CBE                     l2065:
  4234  0CBE  084C               	movf	___fldiv@b,w
  4235  0CBF  00D0               	movwf	??___fldiv
  4236  0CC0  084D               	movf	___fldiv@b+1,w
  4237  0CC1  00D1               	movwf	??___fldiv+1
  4238  0CC2  084E               	movf	___fldiv@b+2,w
  4239  0CC3  00D2               	movwf	??___fldiv+2
  4240  0CC4  084F               	movf	___fldiv@b+3,w
  4241  0CC5  00D3               	movwf	??___fldiv+3
  4242  0CC6  3001               	movlw	1
  4243  0CC7  00D4               	movwf	??___fldiv+4
  4244  0CC8                     u2755:
  4245  0CC8  0D53               	rlf	??___fldiv+3,w
  4246  0CC9  0CD3               	rrf	??___fldiv+3,f
  4247  0CCA  0CD2               	rrf	??___fldiv+2,f
  4248  0CCB  0CD1               	rrf	??___fldiv+1,f
  4249  0CCC  0CD0               	rrf	??___fldiv,f
  4250  0CCD                     u2750:
  4251  0CCD  0BD4               	decfsz	??___fldiv+4,f
  4252  0CCE  2CC8               	goto	u2755
  4253  0CCF  0853               	movf	??___fldiv+3,w
  4254  0CD0  00CF               	movwf	___fldiv@b+3
  4255  0CD1  0852               	movf	??___fldiv+2,w
  4256  0CD2  00CE               	movwf	___fldiv@b+2
  4257  0CD3  0851               	movf	??___fldiv+1,w
  4258  0CD4  00CD               	movwf	___fldiv@b+1
  4259  0CD5  0850               	movf	??___fldiv,w
  4260  0CD6  00CC               	movwf	___fldiv@b
  4261  0CD7                     l2067:
  4262  0CD7  3001               	movlw	1
  4263  0CD8  07DA               	addwf	___fldiv@new_exp,f
  4264  0CD9  1803               	skipnc
  4265  0CDA  0ADB               	incf	___fldiv@new_exp+1,f
  4266  0CDB  3000               	movlw	0
  4267  0CDC  07DB               	addwf	___fldiv@new_exp+1,f
  4268  0CDD                     l2069:
  4269  0CDD  085B               	movf	___fldiv@new_exp+1,w
  4270  0CDE  3A80               	xorlw	128
  4271  0CDF  00FF               	movwf	btemp+1
  4272  0CE0  3080               	movlw	128
  4273  0CE1  027F               	subwf	btemp+1,w
  4274  0CE2  1D03               	skipz
  4275  0CE3  2CE6               	goto	u2765
  4276  0CE4  30FF               	movlw	255
  4277  0CE5  025A               	subwf	___fldiv@new_exp,w
  4278  0CE6                     u2765:
  4279  0CE6  1C03               	skipc
  4280  0CE7  2CE9               	goto	u2761
  4281  0CE8  2CEA               	goto	u2760
  4282  0CE9                     u2761:
  4283  0CE9  2CF8               	goto	l2073
  4284  0CEA                     u2760:
  4285  0CEA                     l2071:
  4286  0CEA  30FF               	movlw	255
  4287  0CEB  1283               	bcf	3,5	;RP0=0, select bank0
  4288  0CEC  1303               	bcf	3,6	;RP1=0, select bank0
  4289  0CED  00DA               	movwf	___fldiv@new_exp
  4290  0CEE  3000               	movlw	0
  4291  0CEF  00DB               	movwf	___fldiv@new_exp+1
  4292  0CF0  3000               	movlw	0
  4293  0CF1  00CF               	movwf	___fldiv@b+3
  4294  0CF2  3000               	movlw	0
  4295  0CF3  00CE               	movwf	___fldiv@b+2
  4296  0CF4  3000               	movlw	0
  4297  0CF5  00CD               	movwf	___fldiv@b+1
  4298  0CF6  3000               	movlw	0
  4299  0CF7  00CC               	movwf	___fldiv@b
  4300  0CF8                     l2073:
  4301  0CF8  1283               	bcf	3,5	;RP0=0, select bank0
  4302  0CF9  1303               	bcf	3,6	;RP1=0, select bank0
  4303  0CFA  085B               	movf	___fldiv@new_exp+1,w
  4304  0CFB  3A80               	xorlw	128
  4305  0CFC  00FF               	movwf	btemp+1
  4306  0CFD  3080               	movlw	128
  4307  0CFE  027F               	subwf	btemp+1,w
  4308  0CFF  1D03               	skipz
  4309  0D00  2D03               	goto	u2775
  4310  0D01  3001               	movlw	1
  4311  0D02  025A               	subwf	___fldiv@new_exp,w
  4312  0D03                     u2775:
  4313  0D03  1803               	skipnc
  4314  0D04  2D06               	goto	u2771
  4315  0D05  2D07               	goto	u2770
  4316  0D06                     u2771:
  4317  0D06  2D14               	goto	l610
  4318  0D07                     u2770:
  4319  0D07                     l2075:
  4320  0D07  1283               	bcf	3,5	;RP0=0, select bank0
  4321  0D08  1303               	bcf	3,6	;RP1=0, select bank0
  4322  0D09  01DA               	clrf	___fldiv@new_exp
  4323  0D0A  01DB               	clrf	___fldiv@new_exp+1
  4324  0D0B                     l2077:
  4325  0D0B  3000               	movlw	0
  4326  0D0C  00CF               	movwf	___fldiv@b+3
  4327  0D0D  3000               	movlw	0
  4328  0D0E  00CE               	movwf	___fldiv@b+2
  4329  0D0F  3000               	movlw	0
  4330  0D10  00CD               	movwf	___fldiv@b+1
  4331  0D11  3000               	movlw	0
  4332  0D12  00CC               	movwf	___fldiv@b
  4333  0D13                     l2079:
  4334  0D13  01D9               	clrf	___fldiv@sign
  4335  0D14                     l610:
  4336  0D14  1283               	bcf	3,5	;RP0=0, select bank0
  4337  0D15  1303               	bcf	3,6	;RP1=0, select bank0
  4338  0D16  085A               	movf	___fldiv@new_exp,w
  4339  0D17  00D0               	movwf	??___fldiv
  4340  0D18  0850               	movf	??___fldiv,w
  4341  0D19  00E0               	movwf	___fldiv@bexp
  4342  0D1A                     l2081:
  4343  0D1A  1C60               	btfss	___fldiv@bexp,0
  4344  0D1B  2D1D               	goto	u2781
  4345  0D1C  2D1E               	goto	u2780
  4346  0D1D                     u2781:
  4347  0D1D  2D20               	goto	l2085
  4348  0D1E                     u2780:
  4349  0D1E                     l2083:
  4350  0D1E  17CE               	bsf	___fldiv@b+2,7
  4351  0D1F  2D24               	goto	l612
  4352  0D20                     l2085:
  4353  0D20  307F               	movlw	127
  4354  0D21  00D0               	movwf	??___fldiv
  4355  0D22  0850               	movf	??___fldiv,w
  4356  0D23  05CE               	andwf	___fldiv@b+2,f
  4357  0D24                     l612:
  4358  0D24  0860               	movf	___fldiv@bexp,w
  4359  0D25  00D0               	movwf	??___fldiv
  4360  0D26  1003               	clrc
  4361  0D27  0C50               	rrf	??___fldiv,w
  4362  0D28  00D1               	movwf	??___fldiv+1
  4363  0D29  0851               	movf	??___fldiv+1,w
  4364  0D2A  00CF               	movwf	___fldiv@b+3
  4365  0D2B  0859               	movf	___fldiv@sign,w
  4366  0D2C  00D0               	movwf	??___fldiv
  4367  0D2D  0850               	movf	??___fldiv,w
  4368  0D2E  04CF               	iorwf	___fldiv@b+3,f
  4369  0D2F  2BC8               	goto	l1993
  4370  0D30                     l590:
  4371  0D30  0008               	return
  4372  0D31                     __end_of___fldiv:
  4373                           
  4374                           	psect	text10
  4375  0027                     __ptext10:	
  4376 ;; *************** function ___fladd *****************
  4377 ;; Defined at:
  4378 ;;		line 10 in file "C:\Program Files\Microchip\xc8\v2.32\pic\sources\c90\common\sprcadd.c"
  4379 ;; Parameters:    Size  Location     Type
  4380 ;;  b               4   66[BANK0 ] unsigned char 
  4381 ;;  a               4   70[BANK0 ] unsigned char 
  4382 ;; Auto vars:     Size  Location     Type
  4383 ;;  grs             1   77[BANK0 ] unsigned char 
  4384 ;;  bexp            1   76[BANK0 ] unsigned char 
  4385 ;;  aexp            1   75[BANK0 ] unsigned char 
  4386 ;;  signs           1   74[BANK0 ] unsigned char 
  4387 ;; Return value:  Size  Location     Type
  4388 ;;                  4   66[BANK0 ] unsigned char 
  4389 ;; Registers used:
  4390 ;;		wreg, status,2, status,0, btemp+1
  4391 ;; Tracked objects:
  4392 ;;		On entry : 0/0
  4393 ;;		On exit  : 0/0
  4394 ;;		Unchanged: 0/0
  4395 ;; Data sizes:     COMMON   BANK0   BANK1   BANK3   BANK2
  4396 ;;      Params:         0       8       0       0       0
  4397 ;;      Locals:         0       4       0       0       0
  4398 ;;      Temps:          0       0       8       0       0
  4399 ;;      Totals:         0      12       8       0       0
  4400 ;;Total ram usage:       20 bytes
  4401 ;; Hardware stack levels used: 1
  4402 ;; Hardware stack levels required when called: 1
  4403 ;; This function calls:
  4404 ;;		Nothing
  4405 ;; This function is called by:
  4406 ;;		_dista_cal
  4407 ;; This function uses a non-reentrant model
  4408 ;;
  4409                           
  4410                           
  4411                           ;psect for function ___fladd
  4412  0027                     ___fladd:
  4413  0027                     l2559:	
  4414                           ;incstack = 0
  4415                           ; Regs used in ___fladd: [wreg+status,2+status,0+btemp+1]
  4416                           
  4417  0027  1283               	bcf	3,5	;RP0=0, select bank0
  4418  0028  1303               	bcf	3,6	;RP1=0, select bank0
  4419  0029  0865               	movf	___fladd@b+3,w
  4420  002A  3980               	andlw	128
  4421  002B  1683               	bsf	3,5	;RP0=1, select bank1
  4422  002C  1303               	bcf	3,6	;RP1=0, select bank1
  4423  002D  00C0               	movwf	??___fladd^(0+128)
  4424  002E  0840               	movf	??___fladd^(0+128),w
  4425  002F  1283               	bcf	3,5	;RP0=0, select bank0
  4426  0030  1303               	bcf	3,6	;RP1=0, select bank0
  4427  0031  00EA               	movwf	___fladd@signs
  4428  0032                     l2561:
  4429  0032  0865               	movf	___fladd@b+3,w
  4430  0033  1683               	bsf	3,5	;RP0=1, select bank1
  4431  0034  1303               	bcf	3,6	;RP1=0, select bank1
  4432  0035  00C0               	movwf	??___fladd^(0+128)
  4433  0036  0740               	addwf	??___fladd^(0+128),w
  4434  0037  00C1               	movwf	(??___fladd+1)^(0+128)
  4435  0038  0841               	movf	(??___fladd+1)^(0+128),w
  4436  0039  1283               	bcf	3,5	;RP0=0, select bank0
  4437  003A  1303               	bcf	3,6	;RP1=0, select bank0
  4438  003B  00EC               	movwf	___fladd@bexp
  4439  003C                     l2563:
  4440  003C  1FE4               	btfss	___fladd@b+2,7
  4441  003D  283F               	goto	u3651
  4442  003E  2840               	goto	u3650
  4443  003F                     u3651:
  4444  003F  2841               	goto	l2567
  4445  0040                     u3650:
  4446  0040                     l2565:
  4447  0040  146C               	bsf	___fladd@bexp,0
  4448  0041                     l2567:
  4449  0041  086C               	movf	___fladd@bexp,w
  4450  0042  1903               	btfsc	3,2
  4451  0043  2845               	goto	u3661
  4452  0044  2846               	goto	u3660
  4453  0045                     u3661:
  4454  0045  2856               	goto	l2577
  4455  0046                     u3660:
  4456  0046                     l2569:
  4457  0046  0A6C               	incf	___fladd@bexp,w
  4458  0047  1D03               	btfss	3,2
  4459  0048  284A               	goto	u3671
  4460  0049  284B               	goto	u3670
  4461  004A                     u3671:
  4462  004A  2853               	goto	l2573
  4463  004B                     u3670:
  4464  004B                     l2571:
  4465  004B  3000               	movlw	0
  4466  004C  00E5               	movwf	___fladd@b+3
  4467  004D  3000               	movlw	0
  4468  004E  00E4               	movwf	___fladd@b+2
  4469  004F  3000               	movlw	0
  4470  0050  00E3               	movwf	___fladd@b+1
  4471  0051  3000               	movlw	0
  4472  0052  00E2               	movwf	___fladd@b
  4473  0053                     l2573:
  4474  0053  17E4               	bsf	___fladd@b+2,7
  4475  0054                     l2575:
  4476  0054  01E5               	clrf	___fladd@b+3
  4477  0055  285E               	goto	l2579
  4478  0056                     l2577:
  4479  0056  3000               	movlw	0
  4480  0057  00E5               	movwf	___fladd@b+3
  4481  0058  3000               	movlw	0
  4482  0059  00E4               	movwf	___fladd@b+2
  4483  005A  3000               	movlw	0
  4484  005B  00E3               	movwf	___fladd@b+1
  4485  005C  3000               	movlw	0
  4486  005D  00E2               	movwf	___fladd@b
  4487  005E                     l2579:
  4488  005E  0869               	movf	___fladd@a+3,w
  4489  005F  3980               	andlw	128
  4490  0060  1683               	bsf	3,5	;RP0=1, select bank1
  4491  0061  1303               	bcf	3,6	;RP1=0, select bank1
  4492  0062  00C0               	movwf	??___fladd^(0+128)
  4493  0063  0840               	movf	??___fladd^(0+128),w
  4494  0064  1283               	bcf	3,5	;RP0=0, select bank0
  4495  0065  1303               	bcf	3,6	;RP1=0, select bank0
  4496  0066  00EB               	movwf	___fladd@aexp
  4497  0067                     l2581:
  4498  0067  086B               	movf	___fladd@aexp,w
  4499  0068  066A               	xorwf	___fladd@signs,w
  4500  0069  1903               	skipnz
  4501  006A  286C               	goto	u3681
  4502  006B  286D               	goto	u3680
  4503  006C                     u3681:
  4504  006C  286E               	goto	l2585
  4505  006D                     u3680:
  4506  006D                     l2583:
  4507  006D  176A               	bsf	___fladd@signs,6
  4508  006E                     l2585:
  4509  006E  0869               	movf	___fladd@a+3,w
  4510  006F  1683               	bsf	3,5	;RP0=1, select bank1
  4511  0070  1303               	bcf	3,6	;RP1=0, select bank1
  4512  0071  00C0               	movwf	??___fladd^(0+128)
  4513  0072  0740               	addwf	??___fladd^(0+128),w
  4514  0073  00C1               	movwf	(??___fladd+1)^(0+128)
  4515  0074  0841               	movf	(??___fladd+1)^(0+128),w
  4516  0075  1283               	bcf	3,5	;RP0=0, select bank0
  4517  0076  1303               	bcf	3,6	;RP1=0, select bank0
  4518  0077  00EB               	movwf	___fladd@aexp
  4519  0078                     l2587:
  4520  0078  1FE8               	btfss	___fladd@a+2,7
  4521  0079  287B               	goto	u3691
  4522  007A  287C               	goto	u3690
  4523  007B                     u3691:
  4524  007B  287D               	goto	l2591
  4525  007C                     u3690:
  4526  007C                     l2589:
  4527  007C  146B               	bsf	___fladd@aexp,0
  4528  007D                     l2591:
  4529  007D  086B               	movf	___fladd@aexp,w
  4530  007E  1903               	btfsc	3,2
  4531  007F  2881               	goto	u3701
  4532  0080  2882               	goto	u3700
  4533  0081                     u3701:
  4534  0081  2892               	goto	l2601
  4535  0082                     u3700:
  4536  0082                     l2593:
  4537  0082  0A6B               	incf	___fladd@aexp,w
  4538  0083  1D03               	btfss	3,2
  4539  0084  2886               	goto	u3711
  4540  0085  2887               	goto	u3710
  4541  0086                     u3711:
  4542  0086  288F               	goto	l2597
  4543  0087                     u3710:
  4544  0087                     l2595:
  4545  0087  3000               	movlw	0
  4546  0088  00E9               	movwf	___fladd@a+3
  4547  0089  3000               	movlw	0
  4548  008A  00E8               	movwf	___fladd@a+2
  4549  008B  3000               	movlw	0
  4550  008C  00E7               	movwf	___fladd@a+1
  4551  008D  3000               	movlw	0
  4552  008E  00E6               	movwf	___fladd@a
  4553  008F                     l2597:
  4554  008F  17E8               	bsf	___fladd@a+2,7
  4555  0090                     l2599:
  4556  0090  01E9               	clrf	___fladd@a+3
  4557  0091  289A               	goto	l532
  4558  0092                     l2601:
  4559  0092  3000               	movlw	0
  4560  0093  00E9               	movwf	___fladd@a+3
  4561  0094  3000               	movlw	0
  4562  0095  00E8               	movwf	___fladd@a+2
  4563  0096  3000               	movlw	0
  4564  0097  00E7               	movwf	___fladd@a+1
  4565  0098  3000               	movlw	0
  4566  0099  00E6               	movwf	___fladd@a
  4567  009A                     l532:
  4568  009A  086C               	movf	___fladd@bexp,w
  4569  009B  026B               	subwf	___fladd@aexp,w
  4570  009C  1803               	skipnc
  4571  009D  289F               	goto	u3721
  4572  009E  28A0               	goto	u3720
  4573  009F                     u3721:
  4574  009F  2924               	goto	l2637
  4575  00A0                     u3720:
  4576  00A0                     l2603:
  4577  00A0  1F6A               	btfss	___fladd@signs,6
  4578  00A1  28A3               	goto	u3731
  4579  00A2  28A4               	goto	u3730
  4580  00A3                     u3731:
  4581  00A3  28AC               	goto	l2607
  4582  00A4                     u3730:
  4583  00A4                     l2605:
  4584  00A4  3080               	movlw	128
  4585  00A5  1683               	bsf	3,5	;RP0=1, select bank1
  4586  00A6  1303               	bcf	3,6	;RP1=0, select bank1
  4587  00A7  00C0               	movwf	??___fladd^(0+128)
  4588  00A8  0840               	movf	??___fladd^(0+128),w
  4589  00A9  1283               	bcf	3,5	;RP0=0, select bank0
  4590  00AA  1303               	bcf	3,6	;RP1=0, select bank0
  4591  00AB  06EA               	xorwf	___fladd@signs,f
  4592  00AC                     l2607:
  4593  00AC  086C               	movf	___fladd@bexp,w
  4594  00AD  1683               	bsf	3,5	;RP0=1, select bank1
  4595  00AE  1303               	bcf	3,6	;RP1=0, select bank1
  4596  00AF  00C0               	movwf	??___fladd^(0+128)
  4597  00B0  0840               	movf	??___fladd^(0+128),w
  4598  00B1  1283               	bcf	3,5	;RP0=0, select bank0
  4599  00B2  1303               	bcf	3,6	;RP1=0, select bank0
  4600  00B3  00ED               	movwf	___fladd@grs
  4601  00B4                     l2609:
  4602  00B4  086B               	movf	___fladd@aexp,w
  4603  00B5  1683               	bsf	3,5	;RP0=1, select bank1
  4604  00B6  1303               	bcf	3,6	;RP1=0, select bank1
  4605  00B7  00C0               	movwf	??___fladd^(0+128)
  4606  00B8  0840               	movf	??___fladd^(0+128),w
  4607  00B9  1283               	bcf	3,5	;RP0=0, select bank0
  4608  00BA  1303               	bcf	3,6	;RP1=0, select bank0
  4609  00BB  00EC               	movwf	___fladd@bexp
  4610  00BC                     l2611:
  4611  00BC  086D               	movf	___fladd@grs,w
  4612  00BD  1683               	bsf	3,5	;RP0=1, select bank1
  4613  00BE  1303               	bcf	3,6	;RP1=0, select bank1
  4614  00BF  00C0               	movwf	??___fladd^(0+128)
  4615  00C0  0840               	movf	??___fladd^(0+128),w
  4616  00C1  1283               	bcf	3,5	;RP0=0, select bank0
  4617  00C2  1303               	bcf	3,6	;RP1=0, select bank0
  4618  00C3  00EB               	movwf	___fladd@aexp
  4619  00C4                     l2613:
  4620  00C4  0862               	movf	___fladd@b,w
  4621  00C5  1683               	bsf	3,5	;RP0=1, select bank1
  4622  00C6  1303               	bcf	3,6	;RP1=0, select bank1
  4623  00C7  00C0               	movwf	??___fladd^(0+128)
  4624  00C8  0840               	movf	??___fladd^(0+128),w
  4625  00C9  1283               	bcf	3,5	;RP0=0, select bank0
  4626  00CA  1303               	bcf	3,6	;RP1=0, select bank0
  4627  00CB  00ED               	movwf	___fladd@grs
  4628  00CC                     l2615:
  4629  00CC  0866               	movf	___fladd@a,w
  4630  00CD  1683               	bsf	3,5	;RP0=1, select bank1
  4631  00CE  1303               	bcf	3,6	;RP1=0, select bank1
  4632  00CF  00C0               	movwf	??___fladd^(0+128)
  4633  00D0  0840               	movf	??___fladd^(0+128),w
  4634  00D1  1283               	bcf	3,5	;RP0=0, select bank0
  4635  00D2  1303               	bcf	3,6	;RP1=0, select bank0
  4636  00D3  00E2               	movwf	___fladd@b
  4637  00D4                     l2617:
  4638  00D4  086D               	movf	___fladd@grs,w
  4639  00D5  1683               	bsf	3,5	;RP0=1, select bank1
  4640  00D6  1303               	bcf	3,6	;RP1=0, select bank1
  4641  00D7  00C0               	movwf	??___fladd^(0+128)
  4642  00D8  0840               	movf	??___fladd^(0+128),w
  4643  00D9  1283               	bcf	3,5	;RP0=0, select bank0
  4644  00DA  1303               	bcf	3,6	;RP1=0, select bank0
  4645  00DB  00E6               	movwf	___fladd@a
  4646  00DC                     l2619:
  4647  00DC  0863               	movf	___fladd@b+1,w
  4648  00DD  1683               	bsf	3,5	;RP0=1, select bank1
  4649  00DE  1303               	bcf	3,6	;RP1=0, select bank1
  4650  00DF  00C0               	movwf	??___fladd^(0+128)
  4651  00E0  0840               	movf	??___fladd^(0+128),w
  4652  00E1  1283               	bcf	3,5	;RP0=0, select bank0
  4653  00E2  1303               	bcf	3,6	;RP1=0, select bank0
  4654  00E3  00ED               	movwf	___fladd@grs
  4655  00E4                     l2621:
  4656  00E4  0867               	movf	___fladd@a+1,w
  4657  00E5  1683               	bsf	3,5	;RP0=1, select bank1
  4658  00E6  1303               	bcf	3,6	;RP1=0, select bank1
  4659  00E7  00C0               	movwf	??___fladd^(0+128)
  4660  00E8  0840               	movf	??___fladd^(0+128),w
  4661  00E9  1283               	bcf	3,5	;RP0=0, select bank0
  4662  00EA  1303               	bcf	3,6	;RP1=0, select bank0
  4663  00EB  00E3               	movwf	___fladd@b+1
  4664  00EC                     l2623:
  4665  00EC  086D               	movf	___fladd@grs,w
  4666  00ED  1683               	bsf	3,5	;RP0=1, select bank1
  4667  00EE  1303               	bcf	3,6	;RP1=0, select bank1
  4668  00EF  00C0               	movwf	??___fladd^(0+128)
  4669  00F0  0840               	movf	??___fladd^(0+128),w
  4670  00F1  1283               	bcf	3,5	;RP0=0, select bank0
  4671  00F2  1303               	bcf	3,6	;RP1=0, select bank0
  4672  00F3  00E7               	movwf	___fladd@a+1
  4673  00F4                     l2625:
  4674  00F4  0864               	movf	___fladd@b+2,w
  4675  00F5  1683               	bsf	3,5	;RP0=1, select bank1
  4676  00F6  1303               	bcf	3,6	;RP1=0, select bank1
  4677  00F7  00C0               	movwf	??___fladd^(0+128)
  4678  00F8  0840               	movf	??___fladd^(0+128),w
  4679  00F9  1283               	bcf	3,5	;RP0=0, select bank0
  4680  00FA  1303               	bcf	3,6	;RP1=0, select bank0
  4681  00FB  00ED               	movwf	___fladd@grs
  4682  00FC                     l2627:
  4683  00FC  0868               	movf	___fladd@a+2,w
  4684  00FD  1683               	bsf	3,5	;RP0=1, select bank1
  4685  00FE  1303               	bcf	3,6	;RP1=0, select bank1
  4686  00FF  00C0               	movwf	??___fladd^(0+128)
  4687  0100  0840               	movf	??___fladd^(0+128),w
  4688  0101  1283               	bcf	3,5	;RP0=0, select bank0
  4689  0102  1303               	bcf	3,6	;RP1=0, select bank0
  4690  0103  00E4               	movwf	___fladd@b+2
  4691  0104                     l2629:
  4692  0104  086D               	movf	___fladd@grs,w
  4693  0105  1683               	bsf	3,5	;RP0=1, select bank1
  4694  0106  1303               	bcf	3,6	;RP1=0, select bank1
  4695  0107  00C0               	movwf	??___fladd^(0+128)
  4696  0108  0840               	movf	??___fladd^(0+128),w
  4697  0109  1283               	bcf	3,5	;RP0=0, select bank0
  4698  010A  1303               	bcf	3,6	;RP1=0, select bank0
  4699  010B  00E8               	movwf	___fladd@a+2
  4700  010C                     l2631:
  4701  010C  0865               	movf	___fladd@b+3,w
  4702  010D  1683               	bsf	3,5	;RP0=1, select bank1
  4703  010E  1303               	bcf	3,6	;RP1=0, select bank1
  4704  010F  00C0               	movwf	??___fladd^(0+128)
  4705  0110  0840               	movf	??___fladd^(0+128),w
  4706  0111  1283               	bcf	3,5	;RP0=0, select bank0
  4707  0112  1303               	bcf	3,6	;RP1=0, select bank0
  4708  0113  00ED               	movwf	___fladd@grs
  4709  0114                     l2633:
  4710  0114  0869               	movf	___fladd@a+3,w
  4711  0115  1683               	bsf	3,5	;RP0=1, select bank1
  4712  0116  1303               	bcf	3,6	;RP1=0, select bank1
  4713  0117  00C0               	movwf	??___fladd^(0+128)
  4714  0118  0840               	movf	??___fladd^(0+128),w
  4715  0119  1283               	bcf	3,5	;RP0=0, select bank0
  4716  011A  1303               	bcf	3,6	;RP1=0, select bank0
  4717  011B  00E5               	movwf	___fladd@b+3
  4718  011C                     l2635:
  4719  011C  086D               	movf	___fladd@grs,w
  4720  011D  1683               	bsf	3,5	;RP0=1, select bank1
  4721  011E  1303               	bcf	3,6	;RP1=0, select bank1
  4722  011F  00C0               	movwf	??___fladd^(0+128)
  4723  0120  0840               	movf	??___fladd^(0+128),w
  4724  0121  1283               	bcf	3,5	;RP0=0, select bank0
  4725  0122  1303               	bcf	3,6	;RP1=0, select bank0
  4726  0123  00E9               	movwf	___fladd@a+3
  4727  0124                     l2637:
  4728  0124  01ED               	clrf	___fladd@grs
  4729  0125                     l2639:
  4730  0125  086B               	movf	___fladd@aexp,w
  4731  0126  1683               	bsf	3,5	;RP0=1, select bank1
  4732  0127  1303               	bcf	3,6	;RP1=0, select bank1
  4733  0128  00C0               	movwf	??___fladd^(0+128)
  4734  0129  01C1               	clrf	(??___fladd^(0+128)+1)
  4735  012A  0841               	movf	(??___fladd+1)^(0+128),w
  4736  012B  00C3               	movwf	((??___fladd+2)^(0+128)+1)
  4737  012C  1283               	bcf	3,5	;RP0=0, select bank0
  4738  012D  1303               	bcf	3,6	;RP1=0, select bank0
  4739  012E  086C               	movf	___fladd@bexp,w
  4740  012F  1683               	bsf	3,5	;RP0=1, select bank1
  4741  0130  1303               	bcf	3,6	;RP1=0, select bank1
  4742  0131  0240               	subwf	??___fladd^(0+128),w
  4743  0132  00C2               	movwf	(??___fladd+2)^(0+128)
  4744  0133  1C03               	skipc
  4745  0134  03C3               	decf	((??___fladd+2)^(0+128)+1),f
  4746  0135  0843               	movf	(??___fladd+3)^(0+128),w
  4747  0136  3A80               	xorlw	128
  4748  0137  00FF               	movwf	btemp+1
  4749  0138  3080               	movlw	128
  4750  0139  027F               	subwf	btemp+1,w
  4751  013A  1D03               	skipz
  4752  013B  293E               	goto	u3745
  4753  013C  301A               	movlw	26
  4754  013D  0242               	subwf	(??___fladd+2)^(0+128),w
  4755  013E                     u3745:
  4756  013E  1C03               	skipc
  4757  013F  2941               	goto	u3741
  4758  0140  2942               	goto	u3740
  4759  0141                     u3741:
  4760  0141  2993               	goto	l2655
  4761  0142                     u3740:
  4762  0142                     l2641:
  4763  0142  1283               	bcf	3,5	;RP0=0, select bank0
  4764  0143  1303               	bcf	3,6	;RP1=0, select bank0
  4765  0144  0865               	movf	___fladd@b+3,w
  4766  0145  0464               	iorwf	___fladd@b+2,w
  4767  0146  0463               	iorwf	___fladd@b+1,w
  4768  0147  0462               	iorwf	___fladd@b,w
  4769  0148  1D03               	skipz
  4770  0149  294B               	goto	u3751
  4771  014A  294D               	goto	u3750
  4772  014B                     u3751:
  4773  014B  3001               	movlw	1
  4774  014C  294E               	goto	u3760
  4775  014D                     u3750:
  4776  014D  3000               	movlw	0
  4777  014E                     u3760:
  4778  014E  1683               	bsf	3,5	;RP0=1, select bank1
  4779  014F  1303               	bcf	3,6	;RP1=0, select bank1
  4780  0150  00C0               	movwf	??___fladd^(0+128)
  4781  0151  0840               	movf	??___fladd^(0+128),w
  4782  0152  1283               	bcf	3,5	;RP0=0, select bank0
  4783  0153  1303               	bcf	3,6	;RP1=0, select bank0
  4784  0154  00ED               	movwf	___fladd@grs
  4785  0155  3000               	movlw	0
  4786  0156  00E5               	movwf	___fladd@b+3
  4787  0157  3000               	movlw	0
  4788  0158  00E4               	movwf	___fladd@b+2
  4789  0159  3000               	movlw	0
  4790  015A  00E3               	movwf	___fladd@b+1
  4791  015B  3000               	movlw	0
  4792  015C  00E2               	movwf	___fladd@b
  4793  015D  086B               	movf	___fladd@aexp,w
  4794  015E  1683               	bsf	3,5	;RP0=1, select bank1
  4795  015F  1303               	bcf	3,6	;RP1=0, select bank1
  4796  0160  00C0               	movwf	??___fladd^(0+128)
  4797  0161  0840               	movf	??___fladd^(0+128),w
  4798  0162  1283               	bcf	3,5	;RP0=0, select bank0
  4799  0163  1303               	bcf	3,6	;RP1=0, select bank0
  4800  0164  00EC               	movwf	___fladd@bexp
  4801  0165  299B               	goto	l536
  4802  0166                     l538:
  4803  0166  1C6D               	btfss	___fladd@grs,0
  4804  0167  2969               	goto	u3771
  4805  0168  296A               	goto	u3770
  4806  0169                     u3771:
  4807  0169  2977               	goto	l2645
  4808  016A                     u3770:
  4809  016A                     l2643:
  4810  016A  086D               	movf	___fladd@grs,w
  4811  016B  1683               	bsf	3,5	;RP0=1, select bank1
  4812  016C  1303               	bcf	3,6	;RP1=0, select bank1
  4813  016D  00C0               	movwf	??___fladd^(0+128)
  4814  016E  1003               	clrc
  4815  016F  0C40               	rrf	??___fladd^(0+128),w
  4816  0170  3801               	iorlw	1
  4817  0171  00C1               	movwf	(??___fladd+1)^(0+128)
  4818  0172  0841               	movf	(??___fladd+1)^(0+128),w
  4819  0173  1283               	bcf	3,5	;RP0=0, select bank0
  4820  0174  1303               	bcf	3,6	;RP1=0, select bank0
  4821  0175  00ED               	movwf	___fladd@grs
  4822  0176  2979               	goto	l2647
  4823  0177                     l2645:
  4824  0177  1003               	clrc
  4825  0178  0CED               	rrf	___fladd@grs,f
  4826  0179                     l2647:
  4827  0179  1C62               	btfss	___fladd@b,0
  4828  017A  297C               	goto	u3781
  4829  017B  297D               	goto	u3780
  4830  017C                     u3781:
  4831  017C  297E               	goto	l2651
  4832  017D                     u3780:
  4833  017D                     l2649:
  4834  017D  17ED               	bsf	___fladd@grs,7
  4835  017E                     l2651:
  4836  017E  3001               	movlw	1
  4837  017F  1683               	bsf	3,5	;RP0=1, select bank1
  4838  0180  1303               	bcf	3,6	;RP1=0, select bank1
  4839  0181  00C0               	movwf	??___fladd^(0+128)
  4840  0182                     u3795:
  4841  0182  1283               	bcf	3,5	;RP0=0, select bank0
  4842  0183  1303               	bcf	3,6	;RP1=0, select bank0
  4843  0184  0D65               	rlf	___fladd@b+3,w
  4844  0185  0CE5               	rrf	___fladd@b+3,f
  4845  0186  0CE4               	rrf	___fladd@b+2,f
  4846  0187  0CE3               	rrf	___fladd@b+1,f
  4847  0188  0CE2               	rrf	___fladd@b,f
  4848  0189  1683               	bsf	3,5	;RP0=1, select bank1
  4849  018A  1303               	bcf	3,6	;RP1=0, select bank1
  4850  018B  0BC0               	decfsz	(??___fladd^(0+128))& (0+127),f
  4851  018C  2982               	goto	u3795
  4852  018D                     l2653:
  4853  018D  3001               	movlw	1
  4854  018E  00C0               	movwf	??___fladd^(0+128)
  4855  018F  0840               	movf	??___fladd^(0+128),w
  4856  0190  1283               	bcf	3,5	;RP0=0, select bank0
  4857  0191  1303               	bcf	3,6	;RP1=0, select bank0
  4858  0192  07EC               	addwf	___fladd@bexp,f
  4859  0193                     l2655:
  4860  0193  1283               	bcf	3,5	;RP0=0, select bank0
  4861  0194  1303               	bcf	3,6	;RP1=0, select bank0
  4862  0195  086B               	movf	___fladd@aexp,w
  4863  0196  026C               	subwf	___fladd@bexp,w
  4864  0197  1C03               	skipc
  4865  0198  299A               	goto	u3801
  4866  0199  299B               	goto	u3800
  4867  019A                     u3801:
  4868  019A  2966               	goto	l538
  4869  019B                     u3800:
  4870  019B                     l536:
  4871  019B  1B6A               	btfsc	___fladd@signs,6
  4872  019C  299E               	goto	u3811
  4873  019D  299F               	goto	u3810
  4874  019E                     u3811:
  4875  019E  29F6               	goto	l2681
  4876  019F                     u3810:
  4877  019F                     l2657:
  4878  019F  086C               	movf	___fladd@bexp,w
  4879  01A0  1D03               	btfss	3,2
  4880  01A1  29A3               	goto	u3821
  4881  01A2  29A4               	goto	u3820
  4882  01A3                     u3821:
  4883  01A3  29AD               	goto	l2663
  4884  01A4                     u3820:
  4885  01A4                     l2659:
  4886  01A4  3000               	movlw	0
  4887  01A5  00E5               	movwf	?___fladd+3
  4888  01A6  3000               	movlw	0
  4889  01A7  00E4               	movwf	?___fladd+2
  4890  01A8  3000               	movlw	0
  4891  01A9  00E3               	movwf	?___fladd+1
  4892  01AA  3000               	movlw	0
  4893  01AB  00E2               	movwf	?___fladd
  4894  01AC  2B8C               	goto	l545
  4895  01AD                     l2663:
  4896  01AD  0866               	movf	___fladd@a,w
  4897  01AE  07E2               	addwf	___fladd@b,f
  4898  01AF  0867               	movf	___fladd@a+1,w
  4899  01B0  1103               	clrz
  4900  01B1  1803               	skipnc
  4901  01B2  3E01               	addlw	1
  4902  01B3  1903               	skipnz
  4903  01B4  29B6               	goto	u3831
  4904  01B5  07E3               	addwf	___fladd@b+1,f
  4905  01B6                     u3831:
  4906  01B6  0868               	movf	___fladd@a+2,w
  4907  01B7  1103               	clrz
  4908  01B8  1803               	skipnc
  4909  01B9  3E01               	addlw	1
  4910  01BA  1903               	skipnz
  4911  01BB  29BD               	goto	u3832
  4912  01BC  07E4               	addwf	___fladd@b+2,f
  4913  01BD                     u3832:
  4914  01BD  0869               	movf	___fladd@a+3,w
  4915  01BE  1103               	clrz
  4916  01BF  1803               	skipnc
  4917  01C0  3E01               	addlw	1
  4918  01C1  1903               	skipnz
  4919  01C2  29C4               	goto	u3833
  4920  01C3  07E5               	addwf	___fladd@b+3,f
  4921  01C4                     u3833:
  4922  01C4                     l2665:
  4923  01C4  1C65               	btfss	___fladd@b+3,0
  4924  01C5  29C7               	goto	u3841
  4925  01C6  29C8               	goto	u3840
  4926  01C7                     u3841:
  4927  01C7  2AEA               	goto	l2715
  4928  01C8                     u3840:
  4929  01C8                     l2667:
  4930  01C8  1C6D               	btfss	___fladd@grs,0
  4931  01C9  29CB               	goto	u3851
  4932  01CA  29CC               	goto	u3850
  4933  01CB                     u3851:
  4934  01CB  29D9               	goto	l2671
  4935  01CC                     u3850:
  4936  01CC                     l2669:
  4937  01CC  086D               	movf	___fladd@grs,w
  4938  01CD  1683               	bsf	3,5	;RP0=1, select bank1
  4939  01CE  1303               	bcf	3,6	;RP1=0, select bank1
  4940  01CF  00C0               	movwf	??___fladd^(0+128)
  4941  01D0  1003               	clrc
  4942  01D1  0C40               	rrf	??___fladd^(0+128),w
  4943  01D2  3801               	iorlw	1
  4944  01D3  00C1               	movwf	(??___fladd+1)^(0+128)
  4945  01D4  0841               	movf	(??___fladd+1)^(0+128),w
  4946  01D5  1283               	bcf	3,5	;RP0=0, select bank0
  4947  01D6  1303               	bcf	3,6	;RP1=0, select bank0
  4948  01D7  00ED               	movwf	___fladd@grs
  4949  01D8  29DB               	goto	l2673
  4950  01D9                     l2671:
  4951  01D9  1003               	clrc
  4952  01DA  0CED               	rrf	___fladd@grs,f
  4953  01DB                     l2673:
  4954  01DB  1C62               	btfss	___fladd@b,0
  4955  01DC  29DE               	goto	u3861
  4956  01DD  29DF               	goto	u3860
  4957  01DE                     u3861:
  4958  01DE  29E0               	goto	l2677
  4959  01DF                     u3860:
  4960  01DF                     l2675:
  4961  01DF  17ED               	bsf	___fladd@grs,7
  4962  01E0                     l2677:
  4963  01E0  3001               	movlw	1
  4964  01E1  1683               	bsf	3,5	;RP0=1, select bank1
  4965  01E2  1303               	bcf	3,6	;RP1=0, select bank1
  4966  01E3  00C0               	movwf	??___fladd^(0+128)
  4967  01E4                     u3875:
  4968  01E4  1283               	bcf	3,5	;RP0=0, select bank0
  4969  01E5  1303               	bcf	3,6	;RP1=0, select bank0
  4970  01E6  0D65               	rlf	___fladd@b+3,w
  4971  01E7  0CE5               	rrf	___fladd@b+3,f
  4972  01E8  0CE4               	rrf	___fladd@b+2,f
  4973  01E9  0CE3               	rrf	___fladd@b+1,f
  4974  01EA  0CE2               	rrf	___fladd@b,f
  4975  01EB  1683               	bsf	3,5	;RP0=1, select bank1
  4976  01EC  1303               	bcf	3,6	;RP1=0, select bank1
  4977  01ED  0BC0               	decfsz	(??___fladd^(0+128))& (0+127),f
  4978  01EE  29E4               	goto	u3875
  4979  01EF                     l2679:
  4980  01EF  3001               	movlw	1
  4981  01F0  00C0               	movwf	??___fladd^(0+128)
  4982  01F1  0840               	movf	??___fladd^(0+128),w
  4983  01F2  1283               	bcf	3,5	;RP0=0, select bank0
  4984  01F3  1303               	bcf	3,6	;RP1=0, select bank0
  4985  01F4  07EC               	addwf	___fladd@bexp,f
  4986  01F5  2AEA               	goto	l2715
  4987  01F6                     l2681:
  4988  01F6  0865               	movf	___fladd@b+3,w
  4989  01F7  3A80               	xorlw	128
  4990  01F8  00FF               	movwf	btemp+1
  4991  01F9  0869               	movf	___fladd@a+3,w
  4992  01FA  3A80               	xorlw	128
  4993  01FB  027F               	subwf	btemp+1,w
  4994  01FC  1D03               	skipz
  4995  01FD  2A08               	goto	u3883
  4996  01FE  0868               	movf	___fladd@a+2,w
  4997  01FF  0264               	subwf	___fladd@b+2,w
  4998  0200  1D03               	skipz
  4999  0201  2A08               	goto	u3883
  5000  0202  0867               	movf	___fladd@a+1,w
  5001  0203  0263               	subwf	___fladd@b+1,w
  5002  0204  1D03               	skipz
  5003  0205  2A08               	goto	u3883
  5004  0206  0866               	movf	___fladd@a,w
  5005  0207  0262               	subwf	___fladd@b,w
  5006  0208                     u3883:
  5007  0208  1803               	skipnc
  5008  0209  2A0B               	goto	u3881
  5009  020A  2A0C               	goto	u3880
  5010  020B                     u3881:
  5011  020B  2A9C               	goto	l2691
  5012  020C                     u3880:
  5013  020C                     l2683:
  5014  020C  30FF               	movlw	255
  5015  020D  1683               	bsf	3,5	;RP0=1, select bank1
  5016  020E  1303               	bcf	3,6	;RP1=0, select bank1
  5017  020F  00C0               	movwf	??___fladd^(0+128)
  5018  0210  30FF               	movlw	255
  5019  0211  00C1               	movwf	(??___fladd^(0+128)+1)
  5020  0212  30FF               	movlw	255
  5021  0213  00C2               	movwf	(??___fladd^(0+128)+2)
  5022  0214  30FF               	movlw	255
  5023  0215  00C3               	movwf	(??___fladd^(0+128)+3)
  5024  0216  1283               	bcf	3,5	;RP0=0, select bank0
  5025  0217  1303               	bcf	3,6	;RP1=0, select bank0
  5026  0218  0866               	movf	___fladd@a,w
  5027  0219  1683               	bsf	3,5	;RP0=1, select bank1
  5028  021A  1303               	bcf	3,6	;RP1=0, select bank1
  5029  021B  00C4               	movwf	(??___fladd+4)^(0+128)
  5030  021C  1283               	bcf	3,5	;RP0=0, select bank0
  5031  021D  1303               	bcf	3,6	;RP1=0, select bank0
  5032  021E  0867               	movf	___fladd@a+1,w
  5033  021F  1683               	bsf	3,5	;RP0=1, select bank1
  5034  0220  1303               	bcf	3,6	;RP1=0, select bank1
  5035  0221  00C5               	movwf	((??___fladd+4)^(0+128)+1)
  5036  0222  1283               	bcf	3,5	;RP0=0, select bank0
  5037  0223  1303               	bcf	3,6	;RP1=0, select bank0
  5038  0224  0868               	movf	___fladd@a+2,w
  5039  0225  1683               	bsf	3,5	;RP0=1, select bank1
  5040  0226  1303               	bcf	3,6	;RP1=0, select bank1
  5041  0227  00C6               	movwf	((??___fladd+4)^(0+128)+2)
  5042  0228  1283               	bcf	3,5	;RP0=0, select bank0
  5043  0229  1303               	bcf	3,6	;RP1=0, select bank0
  5044  022A  0869               	movf	___fladd@a+3,w
  5045  022B  1683               	bsf	3,5	;RP0=1, select bank1
  5046  022C  1303               	bcf	3,6	;RP1=0, select bank1
  5047  022D  00C7               	movwf	((??___fladd+4)^(0+128)+3)
  5048  022E  1283               	bcf	3,5	;RP0=0, select bank0
  5049  022F  1303               	bcf	3,6	;RP1=0, select bank0
  5050  0230  0862               	movf	___fladd@b,w
  5051  0231  1683               	bsf	3,5	;RP0=1, select bank1
  5052  0232  1303               	bcf	3,6	;RP1=0, select bank1
  5053  0233  02C4               	subwf	(??___fladd+4)^(0+128),f
  5054  0234  1283               	bcf	3,5	;RP0=0, select bank0
  5055  0235  1303               	bcf	3,6	;RP1=0, select bank0
  5056  0236  0863               	movf	___fladd@b+1,w
  5057  0237  1C03               	skipc
  5058  0238  0F63               	incfsz	___fladd@b+1,w
  5059  0239  2A3B               	goto	u3891
  5060  023A  2A3E               	goto	u3892
  5061  023B                     u3891:
  5062  023B  1683               	bsf	3,5	;RP0=1, select bank1
  5063  023C  1303               	bcf	3,6	;RP1=0, select bank1
  5064  023D  02C5               	subwf	((??___fladd+4)^(0+128)+1),f
  5065  023E                     u3892:
  5066  023E  1283               	bcf	3,5	;RP0=0, select bank0
  5067  023F  1303               	bcf	3,6	;RP1=0, select bank0
  5068  0240  0864               	movf	___fladd@b+2,w
  5069  0241  1C03               	skipc
  5070  0242  0F64               	incfsz	___fladd@b+2,w
  5071  0243  2A45               	goto	u3893
  5072  0244  2A48               	goto	u3894
  5073  0245                     u3893:
  5074  0245  1683               	bsf	3,5	;RP0=1, select bank1
  5075  0246  1303               	bcf	3,6	;RP1=0, select bank1
  5076  0247  02C6               	subwf	((??___fladd+4)^(0+128)+2),f
  5077  0248                     u3894:
  5078  0248  1283               	bcf	3,5	;RP0=0, select bank0
  5079  0249  1303               	bcf	3,6	;RP1=0, select bank0
  5080  024A  0865               	movf	___fladd@b+3,w
  5081  024B  1C03               	skipc
  5082  024C  0F65               	incfsz	___fladd@b+3,w
  5083  024D  2A4F               	goto	u3895
  5084  024E  2A52               	goto	u3896
  5085  024F                     u3895:
  5086  024F  1683               	bsf	3,5	;RP0=1, select bank1
  5087  0250  1303               	bcf	3,6	;RP1=0, select bank1
  5088  0251  02C7               	subwf	((??___fladd+4)^(0+128)+3),f
  5089  0252                     u3896:
  5090  0252  1283               	bcf	3,5	;RP0=0, select bank0
  5091  0253  1303               	bcf	3,6	;RP1=0, select bank0
  5092  0254  1683               	bsf	3,5	;RP0=1, select bank1
  5093  0255  1303               	bcf	3,6	;RP1=0, select bank1
  5094  0256  0844               	movf	(??___fladd+4)^(0+128),w
  5095  0257  07C0               	addwf	??___fladd^(0+128),f
  5096  0258  0845               	movf	(??___fladd+5)^(0+128),w
  5097  0259  1803               	skipnc
  5098  025A  0F45               	incfsz	(??___fladd+5)^(0+128),w
  5099  025B  2A5D               	goto	u3900
  5100  025C  2A5E               	goto	u3901
  5101  025D                     u3900:
  5102  025D  07C1               	addwf	(??___fladd^(0+128)+1),f
  5103  025E                     u3901:
  5104  025E  0846               	movf	(??___fladd+6)^(0+128),w
  5105  025F  1803               	skipnc
  5106  0260  0F46               	incfsz	(??___fladd+6)^(0+128),w
  5107  0261  2A63               	goto	u3902
  5108  0262  2A64               	goto	u3903
  5109  0263                     u3902:
  5110  0263  07C2               	addwf	(??___fladd^(0+128)+2),f
  5111  0264                     u3903:
  5112  0264  0847               	movf	(??___fladd+7)^(0+128),w
  5113  0265  1803               	skipnc
  5114  0266  0A47               	incf	(??___fladd+7)^(0+128),w
  5115  0267  07C3               	addwf	(??___fladd^(0+128)+3),f
  5116  0268  0843               	movf	(??___fladd+3)^(0+128),w
  5117  0269  1283               	bcf	3,5	;RP0=0, select bank0
  5118  026A  1303               	bcf	3,6	;RP1=0, select bank0
  5119  026B  00E5               	movwf	___fladd@b+3
  5120  026C  1683               	bsf	3,5	;RP0=1, select bank1
  5121  026D  1303               	bcf	3,6	;RP1=0, select bank1
  5122  026E  0842               	movf	(??___fladd+2)^(0+128),w
  5123  026F  1283               	bcf	3,5	;RP0=0, select bank0
  5124  0270  1303               	bcf	3,6	;RP1=0, select bank0
  5125  0271  00E4               	movwf	___fladd@b+2
  5126  0272  1683               	bsf	3,5	;RP0=1, select bank1
  5127  0273  1303               	bcf	3,6	;RP1=0, select bank1
  5128  0274  0841               	movf	(??___fladd+1)^(0+128),w
  5129  0275  1283               	bcf	3,5	;RP0=0, select bank0
  5130  0276  1303               	bcf	3,6	;RP1=0, select bank0
  5131  0277  00E3               	movwf	___fladd@b+1
  5132  0278  1683               	bsf	3,5	;RP0=1, select bank1
  5133  0279  1303               	bcf	3,6	;RP1=0, select bank1
  5134  027A  0840               	movf	??___fladd^(0+128),w
  5135  027B  1283               	bcf	3,5	;RP0=0, select bank0
  5136  027C  1303               	bcf	3,6	;RP1=0, select bank0
  5137  027D  00E2               	movwf	___fladd@b
  5138  027E                     l2685:
  5139  027E  3080               	movlw	128
  5140  027F  1683               	bsf	3,5	;RP0=1, select bank1
  5141  0280  1303               	bcf	3,6	;RP1=0, select bank1
  5142  0281  00C0               	movwf	??___fladd^(0+128)
  5143  0282  0840               	movf	??___fladd^(0+128),w
  5144  0283  1283               	bcf	3,5	;RP0=0, select bank0
  5145  0284  1303               	bcf	3,6	;RP1=0, select bank0
  5146  0285  06EA               	xorwf	___fladd@signs,f
  5147  0286  09ED               	comf	___fladd@grs,f
  5148  0287  0AED               	incf	___fladd@grs,f
  5149  0288                     l2687:
  5150  0288  086D               	movf	___fladd@grs,w
  5151  0289  1D03               	btfss	3,2
  5152  028A  2A8C               	goto	u3911
  5153  028B  2A8D               	goto	u3910
  5154  028C                     u3911:
  5155  028C  2AAA               	goto	l553
  5156  028D                     u3910:
  5157  028D                     l2689:
  5158  028D  3001               	movlw	1
  5159  028E  07E2               	addwf	___fladd@b,f
  5160  028F  3000               	movlw	0
  5161  0290  1803               	skipnc
  5162  0291  3001               	movlw	1
  5163  0292  07E3               	addwf	___fladd@b+1,f
  5164  0293  3000               	movlw	0
  5165  0294  1803               	skipnc
  5166  0295  3001               	movlw	1
  5167  0296  07E4               	addwf	___fladd@b+2,f
  5168  0297  3000               	movlw	0
  5169  0298  1803               	skipnc
  5170  0299  3001               	movlw	1
  5171  029A  07E5               	addwf	___fladd@b+3,f
  5172  029B  2AAA               	goto	l553
  5173  029C                     l2691:
  5174  029C  0866               	movf	___fladd@a,w
  5175  029D  02E2               	subwf	___fladd@b,f
  5176  029E  0867               	movf	___fladd@a+1,w
  5177  029F  1C03               	skipc
  5178  02A0  0F67               	incfsz	___fladd@a+1,w
  5179  02A1  02E3               	subwf	___fladd@b+1,f
  5180  02A2  0868               	movf	___fladd@a+2,w
  5181  02A3  1C03               	skipc
  5182  02A4  0F68               	incfsz	___fladd@a+2,w
  5183  02A5  02E4               	subwf	___fladd@b+2,f
  5184  02A6  0869               	movf	___fladd@a+3,w
  5185  02A7  1C03               	skipc
  5186  02A8  0F69               	incfsz	___fladd@a+3,w
  5187  02A9  02E5               	subwf	___fladd@b+3,f
  5188  02AA                     l553:
  5189  02AA  0865               	movf	___fladd@b+3,w
  5190  02AB  0464               	iorwf	___fladd@b+2,w
  5191  02AC  0463               	iorwf	___fladd@b+1,w
  5192  02AD  0462               	iorwf	___fladd@b,w
  5193  02AE  1D03               	skipz
  5194  02AF  2AB1               	goto	u3921
  5195  02B0  2AB2               	goto	u3920
  5196  02B1                     u3921:
  5197  02B1  2AE6               	goto	l2713
  5198  02B2                     u3920:
  5199  02B2                     l2693:
  5200  02B2  086D               	movf	___fladd@grs,w
  5201  02B3  1D03               	btfss	3,2
  5202  02B4  2AB6               	goto	u3931
  5203  02B5  2AB7               	goto	u3930
  5204  02B6                     u3931:
  5205  02B6  2AE6               	goto	l2713
  5206  02B7                     u3930:
  5207  02B7                     l2695:
  5208  02B7  3000               	movlw	0
  5209  02B8  00E5               	movwf	?___fladd+3
  5210  02B9  3000               	movlw	0
  5211  02BA  00E4               	movwf	?___fladd+2
  5212  02BB  3000               	movlw	0
  5213  02BC  00E3               	movwf	?___fladd+1
  5214  02BD  3000               	movlw	0
  5215  02BE  00E2               	movwf	?___fladd
  5216  02BF  2B8C               	goto	l545
  5217  02C0                     l2699:
  5218  02C0  3001               	movlw	1
  5219  02C1  1683               	bsf	3,5	;RP0=1, select bank1
  5220  02C2  1303               	bcf	3,6	;RP1=0, select bank1
  5221  02C3  00C0               	movwf	??___fladd^(0+128)
  5222  02C4                     u3945:
  5223  02C4  1003               	clrc
  5224  02C5  1283               	bcf	3,5	;RP0=0, select bank0
  5225  02C6  1303               	bcf	3,6	;RP1=0, select bank0
  5226  02C7  0DE2               	rlf	___fladd@b,f
  5227  02C8  0DE3               	rlf	___fladd@b+1,f
  5228  02C9  0DE4               	rlf	___fladd@b+2,f
  5229  02CA  0DE5               	rlf	___fladd@b+3,f
  5230  02CB  1683               	bsf	3,5	;RP0=1, select bank1
  5231  02CC  1303               	bcf	3,6	;RP1=0, select bank1
  5232  02CD  0BC0               	decfsz	??___fladd^(0+128),f
  5233  02CE  2AC4               	goto	u3945
  5234  02CF                     l2701:
  5235  02CF  1283               	bcf	3,5	;RP0=0, select bank0
  5236  02D0  1303               	bcf	3,6	;RP1=0, select bank0
  5237  02D1  1FED               	btfss	___fladd@grs,7
  5238  02D2  2AD4               	goto	u3951
  5239  02D3  2AD5               	goto	u3950
  5240  02D4                     u3951:
  5241  02D4  2AD6               	goto	l557
  5242  02D5                     u3950:
  5243  02D5                     l2703:
  5244  02D5  1462               	bsf	___fladd@b,0
  5245  02D6                     l557:
  5246  02D6  1C6D               	btfss	___fladd@grs,0
  5247  02D7  2AD9               	goto	u3961
  5248  02D8  2ADA               	goto	u3960
  5249  02D9                     u3961:
  5250  02D9  2ADD               	goto	l2707
  5251  02DA                     u3960:
  5252  02DA                     l2705:
  5253  02DA  1403               	setc
  5254  02DB  0DED               	rlf	___fladd@grs,f
  5255  02DC  2ADF               	goto	l2709
  5256  02DD                     l2707:
  5257  02DD  1003               	clrc
  5258  02DE  0DED               	rlf	___fladd@grs,f
  5259  02DF                     l2709:
  5260  02DF  086C               	movf	___fladd@bexp,w
  5261  02E0  1903               	btfsc	3,2
  5262  02E1  2AE3               	goto	u3971
  5263  02E2  2AE4               	goto	u3970
  5264  02E3                     u3971:
  5265  02E3  2AE6               	goto	l2713
  5266  02E4                     u3970:
  5267  02E4                     l2711:
  5268  02E4  3001               	movlw	1
  5269  02E5  02EC               	subwf	___fladd@bexp,f
  5270  02E6                     l2713:
  5271  02E6  1FE4               	btfss	___fladd@b+2,7
  5272  02E7  2AE9               	goto	u3981
  5273  02E8  2AEA               	goto	u3980
  5274  02E9                     u3981:
  5275  02E9  2AC0               	goto	l2699
  5276  02EA                     u3980:
  5277  02EA                     l2715:
  5278  02EA  01EB               	clrf	___fladd@aexp
  5279  02EB                     l2717:
  5280  02EB  1FED               	btfss	___fladd@grs,7
  5281  02EC  2AEE               	goto	u3991
  5282  02ED  2AEF               	goto	u3990
  5283  02EE                     u3991:
  5284  02EE  2AFD               	goto	l2725
  5285  02EF                     u3990:
  5286  02EF                     l2719:
  5287  02EF  086D               	movf	___fladd@grs,w
  5288  02F0  397F               	andlw	127
  5289  02F1  1903               	btfsc	3,2
  5290  02F2  2AF4               	goto	u4001
  5291  02F3  2AF5               	goto	u4000
  5292  02F4                     u4001:
  5293  02F4  2AF8               	goto	l563
  5294  02F5                     u4000:
  5295  02F5                     l2721:
  5296  02F5  01EB               	clrf	___fladd@aexp
  5297  02F6  0AEB               	incf	___fladd@aexp,f
  5298  02F7  2AFD               	goto	l2725
  5299  02F8                     l563:
  5300  02F8  1C62               	btfss	___fladd@b,0
  5301  02F9  2AFB               	goto	u4011
  5302  02FA  2AFC               	goto	u4010
  5303  02FB                     u4011:
  5304  02FB  2AFD               	goto	l2725
  5305  02FC                     u4010:
  5306  02FC  2AF5               	goto	l2721
  5307  02FD                     l2725:
  5308  02FD  086B               	movf	___fladd@aexp,w
  5309  02FE  1903               	btfsc	3,2
  5310  02FF  2B01               	goto	u4021
  5311  0300  2B02               	goto	u4020
  5312  0301                     u4021:
  5313  0301  2B56               	goto	l566
  5314  0302                     u4020:
  5315  0302                     l2727:
  5316  0302  3001               	movlw	1
  5317  0303  07E2               	addwf	___fladd@b,f
  5318  0304  3000               	movlw	0
  5319  0305  1803               	skipnc
  5320  0306  3001               	movlw	1
  5321  0307  07E3               	addwf	___fladd@b+1,f
  5322  0308  3000               	movlw	0
  5323  0309  1803               	skipnc
  5324  030A  3001               	movlw	1
  5325  030B  07E4               	addwf	___fladd@b+2,f
  5326  030C  3000               	movlw	0
  5327  030D  1803               	skipnc
  5328  030E  3001               	movlw	1
  5329  030F  07E5               	addwf	___fladd@b+3,f
  5330  0310                     l2729:
  5331  0310  1C65               	btfss	___fladd@b+3,0
  5332  0311  2B13               	goto	u4031
  5333  0312  2B14               	goto	u4030
  5334  0313                     u4031:
  5335  0313  2B56               	goto	l566
  5336  0314                     u4030:
  5337  0314                     l2731:
  5338  0314  0862               	movf	___fladd@b,w
  5339  0315  1683               	bsf	3,5	;RP0=1, select bank1
  5340  0316  1303               	bcf	3,6	;RP1=0, select bank1
  5341  0317  00C0               	movwf	??___fladd^(0+128)
  5342  0318  1283               	bcf	3,5	;RP0=0, select bank0
  5343  0319  1303               	bcf	3,6	;RP1=0, select bank0
  5344  031A  0863               	movf	___fladd@b+1,w
  5345  031B  1683               	bsf	3,5	;RP0=1, select bank1
  5346  031C  1303               	bcf	3,6	;RP1=0, select bank1
  5347  031D  00C1               	movwf	(??___fladd^(0+128)+1)
  5348  031E  1283               	bcf	3,5	;RP0=0, select bank0
  5349  031F  1303               	bcf	3,6	;RP1=0, select bank0
  5350  0320  0864               	movf	___fladd@b+2,w
  5351  0321  1683               	bsf	3,5	;RP0=1, select bank1
  5352  0322  1303               	bcf	3,6	;RP1=0, select bank1
  5353  0323  00C2               	movwf	(??___fladd^(0+128)+2)
  5354  0324  1283               	bcf	3,5	;RP0=0, select bank0
  5355  0325  1303               	bcf	3,6	;RP1=0, select bank0
  5356  0326  0865               	movf	___fladd@b+3,w
  5357  0327  1683               	bsf	3,5	;RP0=1, select bank1
  5358  0328  1303               	bcf	3,6	;RP1=0, select bank1
  5359  0329  00C3               	movwf	(??___fladd^(0+128)+3)
  5360  032A  3001               	movlw	1
  5361  032B  00C4               	movwf	(??___fladd+4)^(0+128)
  5362  032C                     u4045:
  5363  032C  0D43               	rlf	(??___fladd^(0+128)+3),w
  5364  032D  0CC3               	rrf	(??___fladd^(0+128)+3),f
  5365  032E  0CC2               	rrf	(??___fladd^(0+128)+2),f
  5366  032F  0CC1               	rrf	(??___fladd^(0+128)+1),f
  5367  0330  0CC0               	rrf	??___fladd^(0+128),f
  5368  0331                     u4040:
  5369  0331  0BC4               	decfsz	(??___fladd+4)^(0+128),f
  5370  0332  2B2C               	goto	u4045
  5371  0333  0843               	movf	(??___fladd+3)^(0+128),w
  5372  0334  1283               	bcf	3,5	;RP0=0, select bank0
  5373  0335  1303               	bcf	3,6	;RP1=0, select bank0
  5374  0336  00E5               	movwf	___fladd@b+3
  5375  0337  1683               	bsf	3,5	;RP0=1, select bank1
  5376  0338  1303               	bcf	3,6	;RP1=0, select bank1
  5377  0339  0842               	movf	(??___fladd+2)^(0+128),w
  5378  033A  1283               	bcf	3,5	;RP0=0, select bank0
  5379  033B  1303               	bcf	3,6	;RP1=0, select bank0
  5380  033C  00E4               	movwf	___fladd@b+2
  5381  033D  1683               	bsf	3,5	;RP0=1, select bank1
  5382  033E  1303               	bcf	3,6	;RP1=0, select bank1
  5383  033F  0841               	movf	(??___fladd+1)^(0+128),w
  5384  0340  1283               	bcf	3,5	;RP0=0, select bank0
  5385  0341  1303               	bcf	3,6	;RP1=0, select bank0
  5386  0342  00E3               	movwf	___fladd@b+1
  5387  0343  1683               	bsf	3,5	;RP0=1, select bank1
  5388  0344  1303               	bcf	3,6	;RP1=0, select bank1
  5389  0345  0840               	movf	??___fladd^(0+128),w
  5390  0346  1283               	bcf	3,5	;RP0=0, select bank0
  5391  0347  1303               	bcf	3,6	;RP1=0, select bank0
  5392  0348  00E2               	movwf	___fladd@b
  5393  0349  0A6C               	incf	___fladd@bexp,w
  5394  034A  1903               	btfsc	3,2
  5395  034B  2B4D               	goto	u4051
  5396  034C  2B4E               	goto	u4050
  5397  034D                     u4051:
  5398  034D  2B56               	goto	l566
  5399  034E                     u4050:
  5400  034E                     l2733:
  5401  034E  3001               	movlw	1
  5402  034F  1683               	bsf	3,5	;RP0=1, select bank1
  5403  0350  1303               	bcf	3,6	;RP1=0, select bank1
  5404  0351  00C0               	movwf	??___fladd^(0+128)
  5405  0352  0840               	movf	??___fladd^(0+128),w
  5406  0353  1283               	bcf	3,5	;RP0=0, select bank0
  5407  0354  1303               	bcf	3,6	;RP1=0, select bank0
  5408  0355  07EC               	addwf	___fladd@bexp,f
  5409  0356                     l566:
  5410  0356  0A6C               	incf	___fladd@bexp,w
  5411  0357  1903               	btfsc	3,2
  5412  0358  2B5A               	goto	u4061
  5413  0359  2B5B               	goto	u4060
  5414  035A                     u4061:
  5415  035A  2B60               	goto	l2737
  5416  035B                     u4060:
  5417  035B                     l2735:
  5418  035B  086C               	movf	___fladd@bexp,w
  5419  035C  1D03               	btfss	3,2
  5420  035D  2B5F               	goto	u4071
  5421  035E  2B60               	goto	u4070
  5422  035F                     u4071:
  5423  035F  2B6E               	goto	l2743
  5424  0360                     u4070:
  5425  0360                     l2737:
  5426  0360  3000               	movlw	0
  5427  0361  00E5               	movwf	___fladd@b+3
  5428  0362  3000               	movlw	0
  5429  0363  00E4               	movwf	___fladd@b+2
  5430  0364  3000               	movlw	0
  5431  0365  00E3               	movwf	___fladd@b+1
  5432  0366  3000               	movlw	0
  5433  0367  00E2               	movwf	___fladd@b
  5434  0368                     l2739:
  5435  0368  086C               	movf	___fladd@bexp,w
  5436  0369  1D03               	btfss	3,2
  5437  036A  2B6C               	goto	u4081
  5438  036B  2B6D               	goto	u4080
  5439  036C                     u4081:
  5440  036C  2B6E               	goto	l2743
  5441  036D                     u4080:
  5442  036D                     l2741:
  5443  036D  01EA               	clrf	___fladd@signs
  5444  036E                     l2743:
  5445  036E  1C6C               	btfss	___fladd@bexp,0
  5446  036F  2B71               	goto	u4091
  5447  0370  2B72               	goto	u4090
  5448  0371                     u4091:
  5449  0371  2B74               	goto	l2747
  5450  0372                     u4090:
  5451  0372                     l2745:
  5452  0372  17E4               	bsf	___fladd@b+2,7
  5453  0373  2B7C               	goto	l574
  5454  0374                     l2747:
  5455  0374  307F               	movlw	127
  5456  0375  1683               	bsf	3,5	;RP0=1, select bank1
  5457  0376  1303               	bcf	3,6	;RP1=0, select bank1
  5458  0377  00C0               	movwf	??___fladd^(0+128)
  5459  0378  0840               	movf	??___fladd^(0+128),w
  5460  0379  1283               	bcf	3,5	;RP0=0, select bank0
  5461  037A  1303               	bcf	3,6	;RP1=0, select bank0
  5462  037B  05E4               	andwf	___fladd@b+2,f
  5463  037C                     l574:
  5464  037C  086C               	movf	___fladd@bexp,w
  5465  037D  1683               	bsf	3,5	;RP0=1, select bank1
  5466  037E  1303               	bcf	3,6	;RP1=0, select bank1
  5467  037F  00C0               	movwf	??___fladd^(0+128)
  5468  0380  1003               	clrc
  5469  0381  0C40               	rrf	??___fladd^(0+128),w
  5470  0382  00C1               	movwf	(??___fladd+1)^(0+128)
  5471  0383  0841               	movf	(??___fladd+1)^(0+128),w
  5472  0384  1283               	bcf	3,5	;RP0=0, select bank0
  5473  0385  1303               	bcf	3,6	;RP1=0, select bank0
  5474  0386  00E5               	movwf	___fladd@b+3
  5475  0387                     l2749:
  5476  0387  1FEA               	btfss	___fladd@signs,7
  5477  0388  2B8A               	goto	u4101
  5478  0389  2B8B               	goto	u4100
  5479  038A                     u4101:
  5480  038A  2B8C               	goto	l575
  5481  038B                     u4100:
  5482  038B                     l2751:
  5483  038B  17E5               	bsf	___fladd@b+3,7
  5484  038C                     l575:
  5485  038C                     l545:
  5486  038C  0008               	return
  5487  038D                     __end_of___fladd:
  5488                           
  5489                           	psect	text11
  5490  0808                     __ptext11:	
  5491 ;; *************** function ___awmod *****************
  5492 ;; Defined at:
  5493 ;;		line 5 in file "C:\Program Files\Microchip\xc8\v2.32\pic\sources\c90\common\awmod.c"
  5494 ;; Parameters:    Size  Location     Type
  5495 ;;  divisor         2    8[BANK0 ] int 
  5496 ;;  dividend        2   10[BANK0 ] int 
  5497 ;; Auto vars:     Size  Location     Type
  5498 ;;  sign            1   13[BANK0 ] unsigned char 
  5499 ;;  counter         1   12[BANK0 ] unsigned char 
  5500 ;; Return value:  Size  Location     Type
  5501 ;;                  2    8[BANK0 ] int 
  5502 ;; Registers used:
  5503 ;;		wreg, status,2, status,0
  5504 ;; Tracked objects:
  5505 ;;		On entry : 0/0
  5506 ;;		On exit  : 0/0
  5507 ;;		Unchanged: 0/0
  5508 ;; Data sizes:     COMMON   BANK0   BANK1   BANK3   BANK2
  5509 ;;      Params:         0       4       0       0       0
  5510 ;;      Locals:         0       2       0       0       0
  5511 ;;      Temps:          1       0       0       0       0
  5512 ;;      Totals:         1       6       0       0       0
  5513 ;;Total ram usage:        7 bytes
  5514 ;; Hardware stack levels used: 1
  5515 ;; Hardware stack levels required when called: 1
  5516 ;; This function calls:
  5517 ;;		Nothing
  5518 ;; This function is called by:
  5519 ;;		_dista_cal
  5520 ;; This function uses a non-reentrant model
  5521 ;;
  5522                           
  5523                           
  5524                           ;psect for function ___awmod
  5525  0808                     ___awmod:
  5526  0808                     l1681:	
  5527                           ;incstack = 0
  5528                           ; Regs used in ___awmod: [wreg+status,2+status,0]
  5529                           
  5530  0808  1283               	bcf	3,5	;RP0=0, select bank0
  5531  0809  1303               	bcf	3,6	;RP1=0, select bank0
  5532  080A  01AD               	clrf	___awmod@sign
  5533  080B                     l1683:
  5534  080B  1FAB               	btfss	___awmod@dividend+1,7
  5535  080C  280E               	goto	u1851
  5536  080D  280F               	goto	u1850
  5537  080E                     u1851:
  5538  080E  2816               	goto	l1689
  5539  080F                     u1850:
  5540  080F                     l1685:
  5541  080F  09AA               	comf	___awmod@dividend,f
  5542  0810  09AB               	comf	___awmod@dividend+1,f
  5543  0811  0AAA               	incf	___awmod@dividend,f
  5544  0812  1903               	skipnz
  5545  0813  0AAB               	incf	___awmod@dividend+1,f
  5546  0814                     l1687:
  5547  0814  01AD               	clrf	___awmod@sign
  5548  0815  0AAD               	incf	___awmod@sign,f
  5549  0816                     l1689:
  5550  0816  1FA9               	btfss	___awmod@divisor+1,7
  5551  0817  2819               	goto	u1861
  5552  0818  281A               	goto	u1860
  5553  0819                     u1861:
  5554  0819  281F               	goto	l1693
  5555  081A                     u1860:
  5556  081A                     l1691:
  5557  081A  09A8               	comf	___awmod@divisor,f
  5558  081B  09A9               	comf	___awmod@divisor+1,f
  5559  081C  0AA8               	incf	___awmod@divisor,f
  5560  081D  1903               	skipnz
  5561  081E  0AA9               	incf	___awmod@divisor+1,f
  5562  081F                     l1693:
  5563  081F  0828               	movf	___awmod@divisor,w
  5564  0820  0429               	iorwf	___awmod@divisor+1,w
  5565  0821  1903               	btfsc	3,2
  5566  0822  2824               	goto	u1871
  5567  0823  2825               	goto	u1870
  5568  0824                     u1871:
  5569  0824  2854               	goto	l1711
  5570  0825                     u1870:
  5571  0825                     l1695:
  5572  0825  01AC               	clrf	___awmod@counter
  5573  0826  0AAC               	incf	___awmod@counter,f
  5574  0827  2833               	goto	l1701
  5575  0828                     l1697:
  5576  0828  3001               	movlw	1
  5577  0829                     u1885:
  5578  0829  1003               	clrc
  5579  082A  0DA8               	rlf	___awmod@divisor,f
  5580  082B  0DA9               	rlf	___awmod@divisor+1,f
  5581  082C  3EFF               	addlw	-1
  5582  082D  1D03               	skipz
  5583  082E  2829               	goto	u1885
  5584  082F                     l1699:
  5585  082F  3001               	movlw	1
  5586  0830  00F5               	movwf	??___awmod
  5587  0831  0875               	movf	??___awmod,w
  5588  0832  07AC               	addwf	___awmod@counter,f
  5589  0833                     l1701:
  5590  0833  1FA9               	btfss	___awmod@divisor+1,7
  5591  0834  2836               	goto	u1891
  5592  0835  2837               	goto	u1890
  5593  0836                     u1891:
  5594  0836  2828               	goto	l1697
  5595  0837                     u1890:
  5596  0837                     l1703:
  5597  0837  0829               	movf	___awmod@divisor+1,w
  5598  0838  022B               	subwf	___awmod@dividend+1,w
  5599  0839  1D03               	skipz
  5600  083A  283D               	goto	u1905
  5601  083B  0828               	movf	___awmod@divisor,w
  5602  083C  022A               	subwf	___awmod@dividend,w
  5603  083D                     u1905:
  5604  083D  1C03               	skipc
  5605  083E  2840               	goto	u1901
  5606  083F  2841               	goto	u1900
  5607  0840                     u1901:
  5608  0840  2847               	goto	l1707
  5609  0841                     u1900:
  5610  0841                     l1705:
  5611  0841  0828               	movf	___awmod@divisor,w
  5612  0842  02AA               	subwf	___awmod@dividend,f
  5613  0843  0829               	movf	___awmod@divisor+1,w
  5614  0844  1C03               	skipc
  5615  0845  03AB               	decf	___awmod@dividend+1,f
  5616  0846  02AB               	subwf	___awmod@dividend+1,f
  5617  0847                     l1707:
  5618  0847  3001               	movlw	1
  5619  0848                     u1915:
  5620  0848  1003               	clrc
  5621  0849  0CA9               	rrf	___awmod@divisor+1,f
  5622  084A  0CA8               	rrf	___awmod@divisor,f
  5623  084B  3EFF               	addlw	-1
  5624  084C  1D03               	skipz
  5625  084D  2848               	goto	u1915
  5626  084E                     l1709:
  5627  084E  3001               	movlw	1
  5628  084F  02AC               	subwf	___awmod@counter,f
  5629  0850  1D03               	btfss	3,2
  5630  0851  2853               	goto	u1921
  5631  0852  2854               	goto	u1920
  5632  0853                     u1921:
  5633  0853  2837               	goto	l1703
  5634  0854                     u1920:
  5635  0854                     l1711:
  5636  0854  082D               	movf	___awmod@sign,w
  5637  0855  1903               	btfsc	3,2
  5638  0856  2858               	goto	u1931
  5639  0857  2859               	goto	u1930
  5640  0858                     u1931:
  5641  0858  285E               	goto	l1715
  5642  0859                     u1930:
  5643  0859                     l1713:
  5644  0859  09AA               	comf	___awmod@dividend,f
  5645  085A  09AB               	comf	___awmod@dividend+1,f
  5646  085B  0AAA               	incf	___awmod@dividend,f
  5647  085C  1903               	skipnz
  5648  085D  0AAB               	incf	___awmod@dividend+1,f
  5649  085E                     l1715:
  5650  085E  082B               	movf	___awmod@dividend+1,w
  5651  085F  00A9               	movwf	?___awmod+1
  5652  0860  082A               	movf	___awmod@dividend,w
  5653  0861  00A8               	movwf	?___awmod
  5654  0862                     l405:
  5655  0862  0008               	return
  5656  0863                     __end_of___awmod:
  5657                           
  5658                           	psect	text12
  5659  08C9                     __ptext12:	
  5660 ;; *************** function ___awdiv *****************
  5661 ;; Defined at:
  5662 ;;		line 5 in file "C:\Program Files\Microchip\xc8\v2.32\pic\sources\c90\common\awdiv.c"
  5663 ;; Parameters:    Size  Location     Type
  5664 ;;  divisor         2    0[BANK0 ] int 
  5665 ;;  dividend        2    2[BANK0 ] int 
  5666 ;; Auto vars:     Size  Location     Type
  5667 ;;  quotient        2    6[BANK0 ] int 
  5668 ;;  sign            1    5[BANK0 ] unsigned char 
  5669 ;;  counter         1    4[BANK0 ] unsigned char 
  5670 ;; Return value:  Size  Location     Type
  5671 ;;                  2    0[BANK0 ] int 
  5672 ;; Registers used:
  5673 ;;		wreg, status,2, status,0
  5674 ;; Tracked objects:
  5675 ;;		On entry : 0/0
  5676 ;;		On exit  : 0/0
  5677 ;;		Unchanged: 0/0
  5678 ;; Data sizes:     COMMON   BANK0   BANK1   BANK3   BANK2
  5679 ;;      Params:         0       4       0       0       0
  5680 ;;      Locals:         0       4       0       0       0
  5681 ;;      Temps:          1       0       0       0       0
  5682 ;;      Totals:         1       8       0       0       0
  5683 ;;Total ram usage:        9 bytes
  5684 ;; Hardware stack levels used: 1
  5685 ;; Hardware stack levels required when called: 1
  5686 ;; This function calls:
  5687 ;;		Nothing
  5688 ;; This function is called by:
  5689 ;;		_dista_cal
  5690 ;; This function uses a non-reentrant model
  5691 ;;
  5692                           
  5693                           
  5694                           ;psect for function ___awdiv
  5695  08C9                     ___awdiv:
  5696  08C9                     l2479:	
  5697                           ;incstack = 0
  5698                           ; Regs used in ___awdiv: [wreg+status,2+status,0]
  5699                           
  5700  08C9  1283               	bcf	3,5	;RP0=0, select bank0
  5701  08CA  1303               	bcf	3,6	;RP1=0, select bank0
  5702  08CB  01A5               	clrf	___awdiv@sign
  5703  08CC                     l2481:
  5704  08CC  1FA1               	btfss	___awdiv@divisor+1,7
  5705  08CD  28CF               	goto	u3451
  5706  08CE  28D0               	goto	u3450
  5707  08CF                     u3451:
  5708  08CF  28D7               	goto	l2487
  5709  08D0                     u3450:
  5710  08D0                     l2483:
  5711  08D0  09A0               	comf	___awdiv@divisor,f
  5712  08D1  09A1               	comf	___awdiv@divisor+1,f
  5713  08D2  0AA0               	incf	___awdiv@divisor,f
  5714  08D3  1903               	skipnz
  5715  08D4  0AA1               	incf	___awdiv@divisor+1,f
  5716  08D5                     l2485:
  5717  08D5  01A5               	clrf	___awdiv@sign
  5718  08D6  0AA5               	incf	___awdiv@sign,f
  5719  08D7                     l2487:
  5720  08D7  1FA3               	btfss	___awdiv@dividend+1,7
  5721  08D8  28DA               	goto	u3461
  5722  08D9  28DB               	goto	u3460
  5723  08DA                     u3461:
  5724  08DA  28E4               	goto	l2493
  5725  08DB                     u3460:
  5726  08DB                     l2489:
  5727  08DB  09A2               	comf	___awdiv@dividend,f
  5728  08DC  09A3               	comf	___awdiv@dividend+1,f
  5729  08DD  0AA2               	incf	___awdiv@dividend,f
  5730  08DE  1903               	skipnz
  5731  08DF  0AA3               	incf	___awdiv@dividend+1,f
  5732  08E0                     l2491:
  5733  08E0  3001               	movlw	1
  5734  08E1  00F4               	movwf	??___awdiv
  5735  08E2  0874               	movf	??___awdiv,w
  5736  08E3  06A5               	xorwf	___awdiv@sign,f
  5737  08E4                     l2493:
  5738  08E4  01A6               	clrf	___awdiv@quotient
  5739  08E5  01A7               	clrf	___awdiv@quotient+1
  5740  08E6                     l2495:
  5741  08E6  0820               	movf	___awdiv@divisor,w
  5742  08E7  0421               	iorwf	___awdiv@divisor+1,w
  5743  08E8  1903               	btfsc	3,2
  5744  08E9  28EB               	goto	u3471
  5745  08EA  28EC               	goto	u3470
  5746  08EB                     u3471:
  5747  08EB  2923               	goto	l2515
  5748  08EC                     u3470:
  5749  08EC                     l2497:
  5750  08EC  01A4               	clrf	___awdiv@counter
  5751  08ED  0AA4               	incf	___awdiv@counter,f
  5752  08EE  28FA               	goto	l2503
  5753  08EF                     l2499:
  5754  08EF  3001               	movlw	1
  5755  08F0                     u3485:
  5756  08F0  1003               	clrc
  5757  08F1  0DA0               	rlf	___awdiv@divisor,f
  5758  08F2  0DA1               	rlf	___awdiv@divisor+1,f
  5759  08F3  3EFF               	addlw	-1
  5760  08F4  1D03               	skipz
  5761  08F5  28F0               	goto	u3485
  5762  08F6                     l2501:
  5763  08F6  3001               	movlw	1
  5764  08F7  00F4               	movwf	??___awdiv
  5765  08F8  0874               	movf	??___awdiv,w
  5766  08F9  07A4               	addwf	___awdiv@counter,f
  5767  08FA                     l2503:
  5768  08FA  1FA1               	btfss	___awdiv@divisor+1,7
  5769  08FB  28FD               	goto	u3491
  5770  08FC  28FE               	goto	u3490
  5771  08FD                     u3491:
  5772  08FD  28EF               	goto	l2499
  5773  08FE                     u3490:
  5774  08FE                     l2505:
  5775  08FE  3001               	movlw	1
  5776  08FF                     u3505:
  5777  08FF  1003               	clrc
  5778  0900  0DA6               	rlf	___awdiv@quotient,f
  5779  0901  0DA7               	rlf	___awdiv@quotient+1,f
  5780  0902  3EFF               	addlw	-1
  5781  0903  1D03               	skipz
  5782  0904  28FF               	goto	u3505
  5783  0905  0821               	movf	___awdiv@divisor+1,w
  5784  0906  0223               	subwf	___awdiv@dividend+1,w
  5785  0907  1D03               	skipz
  5786  0908  290B               	goto	u3515
  5787  0909  0820               	movf	___awdiv@divisor,w
  5788  090A  0222               	subwf	___awdiv@dividend,w
  5789  090B                     u3515:
  5790  090B  1C03               	skipc
  5791  090C  290E               	goto	u3511
  5792  090D  290F               	goto	u3510
  5793  090E                     u3511:
  5794  090E  2916               	goto	l2511
  5795  090F                     u3510:
  5796  090F                     l2507:
  5797  090F  0820               	movf	___awdiv@divisor,w
  5798  0910  02A2               	subwf	___awdiv@dividend,f
  5799  0911  0821               	movf	___awdiv@divisor+1,w
  5800  0912  1C03               	skipc
  5801  0913  03A3               	decf	___awdiv@dividend+1,f
  5802  0914  02A3               	subwf	___awdiv@dividend+1,f
  5803  0915                     l2509:
  5804  0915  1426               	bsf	___awdiv@quotient,0
  5805  0916                     l2511:
  5806  0916  3001               	movlw	1
  5807  0917                     u3525:
  5808  0917  1003               	clrc
  5809  0918  0CA1               	rrf	___awdiv@divisor+1,f
  5810  0919  0CA0               	rrf	___awdiv@divisor,f
  5811  091A  3EFF               	addlw	-1
  5812  091B  1D03               	skipz
  5813  091C  2917               	goto	u3525
  5814  091D                     l2513:
  5815  091D  3001               	movlw	1
  5816  091E  02A4               	subwf	___awdiv@counter,f
  5817  091F  1D03               	btfss	3,2
  5818  0920  2922               	goto	u3531
  5819  0921  2923               	goto	u3530
  5820  0922                     u3531:
  5821  0922  28FE               	goto	l2505
  5822  0923                     u3530:
  5823  0923                     l2515:
  5824  0923  0825               	movf	___awdiv@sign,w
  5825  0924  1903               	btfsc	3,2
  5826  0925  2927               	goto	u3541
  5827  0926  2928               	goto	u3540
  5828  0927                     u3541:
  5829  0927  292D               	goto	l2519
  5830  0928                     u3540:
  5831  0928                     l2517:
  5832  0928  09A6               	comf	___awdiv@quotient,f
  5833  0929  09A7               	comf	___awdiv@quotient+1,f
  5834  092A  0AA6               	incf	___awdiv@quotient,f
  5835  092B  1903               	skipnz
  5836  092C  0AA7               	incf	___awdiv@quotient+1,f
  5837  092D                     l2519:
  5838  092D  0827               	movf	___awdiv@quotient+1,w
  5839  092E  00A1               	movwf	?___awdiv+1
  5840  092F  0826               	movf	___awdiv@quotient,w
  5841  0930  00A0               	movwf	?___awdiv
  5842  0931                     l392:
  5843  0931  0008               	return
  5844  0932                     __end_of___awdiv:
  5845                           
  5846                           	psect	text13
  5847  1798                     __ptext13:	
  5848 ;; *************** function _lcdinit *****************
  5849 ;; Defined at:
  5850 ;;		line 94 in file "123mod.c"
  5851 ;; Parameters:    Size  Location     Type
  5852 ;;		None
  5853 ;; Auto vars:     Size  Location     Type
  5854 ;;		None
  5855 ;; Return value:  Size  Location     Type
  5856 ;;                  1    wreg      void 
  5857 ;; Registers used:
  5858 ;;		wreg, status,2, status,0, pclath, cstack
  5859 ;; Tracked objects:
  5860 ;;		On entry : 0/0
  5861 ;;		On exit  : 0/0
  5862 ;;		Unchanged: 0/0
  5863 ;; Data sizes:     COMMON   BANK0   BANK1   BANK3   BANK2
  5864 ;;      Params:         0       0       0       0       0
  5865 ;;      Locals:         0       0       0       0       0
  5866 ;;      Temps:          0       0       0       0       0
  5867 ;;      Totals:         0       0       0       0       0
  5868 ;;Total ram usage:        0 bytes
  5869 ;; Hardware stack levels used: 1
  5870 ;; Hardware stack levels required when called: 3
  5871 ;; This function calls:
  5872 ;;		_lcdcmd
  5873 ;; This function is called by:
  5874 ;;		_main
  5875 ;; This function uses a non-reentrant model
  5876 ;;
  5877                           
  5878                           
  5879                           ;psect for function _lcdinit
  5880  1798                     _lcdinit:
  5881  1798                     l3003:	
  5882                           ;incstack = 0
  5883                           ; Regs used in _lcdinit: [wreg+status,2+status,0+pclath+cstack]
  5884                           
  5885  1798  1283               	bcf	3,5	;RP0=0, select bank0
  5886  1799  1303               	bcf	3,6	;RP1=0, select bank0
  5887  179A  0188               	clrf	8	;volatile
  5888  179B                     l3005:
  5889  179B  3038               	movlw	56
  5890  179C  160A  118A  2773  160A  118A  	fcall	_lcdcmd
  5891  17A1                     l3007:
  5892  17A1  3001               	movlw	1
  5893  17A2  160A  118A  2773  160A  118A  	fcall	_lcdcmd
  5894  17A7                     l3009:
  5895  17A7  300C               	movlw	12
  5896  17A8  160A  118A  2773  160A  118A  	fcall	_lcdcmd
  5897  17AD                     l3011:
  5898  17AD  3006               	movlw	6
  5899  17AE  160A  118A  2773  160A  118A  	fcall	_lcdcmd
  5900  17B3                     l85:
  5901  17B3  0008               	return
  5902  17B4                     __end_of_lcdinit:
  5903                           
  5904                           	psect	text14
  5905  1773                     __ptext14:	
  5906 ;; *************** function _lcdcmd *****************
  5907 ;; Defined at:
  5908 ;;		line 108 in file "123mod.c"
  5909 ;; Parameters:    Size  Location     Type
  5910 ;;  cmd             1    wreg     unsigned char 
  5911 ;; Auto vars:     Size  Location     Type
  5912 ;;  cmd             1    0[BANK0 ] unsigned char 
  5913 ;; Return value:  Size  Location     Type
  5914 ;;                  1    wreg      void 
  5915 ;; Registers used:
  5916 ;;		wreg, status,2, status,0, pclath, cstack
  5917 ;; Tracked objects:
  5918 ;;		On entry : 0/0
  5919 ;;		On exit  : 0/0
  5920 ;;		Unchanged: 0/0
  5921 ;; Data sizes:     COMMON   BANK0   BANK1   BANK3   BANK2
  5922 ;;      Params:         0       0       0       0       0
  5923 ;;      Locals:         0       1       0       0       0
  5924 ;;      Temps:          0       0       0       0       0
  5925 ;;      Totals:         0       1       0       0       0
  5926 ;;Total ram usage:        1 bytes
  5927 ;; Hardware stack levels used: 1
  5928 ;; Hardware stack levels required when called: 2
  5929 ;; This function calls:
  5930 ;;		_pulse
  5931 ;; This function is called by:
  5932 ;;		_lcdinit
  5933 ;;		_dista_cal
  5934 ;;		_main
  5935 ;; This function uses a non-reentrant model
  5936 ;;
  5937                           
  5938                           
  5939                           ;psect for function _lcdcmd
  5940  1773                     _lcdcmd:
  5941                           
  5942                           ;incstack = 0
  5943                           ; Regs used in _lcdcmd: [wreg+status,2+status,0+pclath+cstack]
  5944                           ;lcdcmd@cmd stored from wreg
  5945  1773  1283               	bcf	3,5	;RP0=0, select bank0
  5946  1774  1303               	bcf	3,6	;RP1=0, select bank0
  5947  1775  00A0               	movwf	lcdcmd@cmd
  5948  1776                     l2465:
  5949  1776  0820               	movf	lcdcmd@cmd,w
  5950  1777  0088               	movwf	8	;volatile
  5951  1778                     l2467:
  5952  1778  1007               	bcf	7,0	;volatile
  5953  1779                     l2469:
  5954  1779  120A  118A  27ED  160A  118A  	fcall	_pulse
  5955  177E                     l91:
  5956  177E  0008               	return
  5957  177F                     __end_of_lcdcmd:
  5958                           
  5959                           	psect	text15
  5960  07ED                     __ptext15:	
  5961 ;; *************** function _pulse *****************
  5962 ;; Defined at:
  5963 ;;		line 102 in file "123mod.c"
  5964 ;; Parameters:    Size  Location     Type
  5965 ;;		None
  5966 ;; Auto vars:     Size  Location     Type
  5967 ;;		None
  5968 ;; Return value:  Size  Location     Type
  5969 ;;                  1    wreg      void 
  5970 ;; Registers used:
  5971 ;;		wreg
  5972 ;; Tracked objects:
  5973 ;;		On entry : 0/0
  5974 ;;		On exit  : 0/0
  5975 ;;		Unchanged: 0/0
  5976 ;; Data sizes:     COMMON   BANK0   BANK1   BANK3   BANK2
  5977 ;;      Params:         0       0       0       0       0
  5978 ;;      Locals:         0       0       0       0       0
  5979 ;;      Temps:          2       0       0       0       0
  5980 ;;      Totals:         2       0       0       0       0
  5981 ;;Total ram usage:        2 bytes
  5982 ;; Hardware stack levels used: 1
  5983 ;; Hardware stack levels required when called: 1
  5984 ;; This function calls:
  5985 ;;		Nothing
  5986 ;; This function is called by:
  5987 ;;		_lcdcmd
  5988 ;;		_lcddat
  5989 ;; This function uses a non-reentrant model
  5990 ;;
  5991                           
  5992                           
  5993                           ;psect for function _pulse
  5994  07ED                     _pulse:
  5995  07ED                     l2439:	
  5996                           ;incstack = 0
  5997                           ; Regs used in _pulse: [wreg]
  5998                           
  5999  07ED  1283               	bcf	3,5	;RP0=0, select bank0
  6000  07EE  1303               	bcf	3,6	;RP1=0, select bank0
  6001  07EF  1487               	bsf	7,1	;volatile
  6002  07F0                     l2441:
  6003  07F0  3021               	movlw	33
  6004  07F1  00F5               	movwf	??_pulse+1
  6005  07F2  3076               	movlw	118
  6006  07F3  00F4               	movwf	??_pulse
  6007  07F4                     u4777:
  6008  07F4  0BF4               	decfsz	??_pulse,f
  6009  07F5  2FF4               	goto	u4777
  6010  07F6  0BF5               	decfsz	??_pulse+1,f
  6011  07F7  2FF4               	goto	u4777
  6012  07F8  0000               	nop
  6013  07F9                     l2443:
  6014  07F9  1283               	bcf	3,5	;RP0=0, select bank0
  6015  07FA  1303               	bcf	3,6	;RP1=0, select bank0
  6016  07FB  1087               	bcf	7,1	;volatile
  6017  07FC                     l88:
  6018  07FC  0008               	return
  6019  07FD                     __end_of_pulse:
  6020                           
  6021                           	psect	text16
  6022  178B                     __ptext16:	
  6023 ;; *************** function _intial_inter *****************
  6024 ;; Defined at:
  6025 ;;		line 133 in file "123mod.c"
  6026 ;; Parameters:    Size  Location     Type
  6027 ;;		None
  6028 ;; Auto vars:     Size  Location     Type
  6029 ;;		None
  6030 ;; Return value:  Size  Location     Type
  6031 ;;                  1    wreg      void 
  6032 ;; Registers used:
  6033 ;;		wreg
  6034 ;; Tracked objects:
  6035 ;;		On entry : 0/0
  6036 ;;		On exit  : 0/0
  6037 ;;		Unchanged: 0/0
  6038 ;; Data sizes:     COMMON   BANK0   BANK1   BANK3   BANK2
  6039 ;;      Params:         0       0       0       0       0
  6040 ;;      Locals:         0       0       0       0       0
  6041 ;;      Temps:          0       0       0       0       0
  6042 ;;      Totals:         0       0       0       0       0
  6043 ;;Total ram usage:        0 bytes
  6044 ;; Hardware stack levels used: 1
  6045 ;; Hardware stack levels required when called: 1
  6046 ;; This function calls:
  6047 ;;		Nothing
  6048 ;; This function is called by:
  6049 ;;		_main
  6050 ;; This function uses a non-reentrant model
  6051 ;;
  6052                           
  6053                           
  6054                           ;psect for function _intial_inter
  6055  178B                     _intial_inter:
  6056  178B                     l1499:	
  6057                           ;incstack = 0
  6058                           ; Regs used in _intial_inter: [wreg]
  6059                           
  6060  178B  1683               	bsf	3,5	;RP0=1, select bank1
  6061  178C  1303               	bcf	3,6	;RP1=0, select bank1
  6062  178D  1207               	bcf	7,4	;volatile
  6063  178E                     l1501:
  6064  178E  3004               	movlw	4
  6065  178F  0081               	movwf	1	;volatile
  6066  1790  30FC               	movlw	252
  6067  1791  1283               	bcf	3,5	;RP0=0, select bank0
  6068  1792  1303               	bcf	3,6	;RP1=0, select bank0
  6069  1793  0081               	movwf	1	;volatile
  6070  1794                     l1503:
  6071  1794  168B               	bsf	11,5	;volatile
  6072  1795                     l1505:
  6073  1795  178B               	bsf	11,7	;volatile
  6074  1796                     l1507:
  6075  1796  170B               	bsf	11,6	;volatile
  6076  1797                     l123:
  6077  1797  0008               	return
  6078  1798                     __end_of_intial_inter:
  6079                           
  6080                           	psect	text17
  6081  07AA                     __ptext17:	
  6082 ;; *************** function _timer_isr *****************
  6083 ;; Defined at:
  6084 ;;		line 54 in file "123mod.c"
  6085 ;; Parameters:    Size  Location     Type
  6086 ;;		None
  6087 ;; Auto vars:     Size  Location     Type
  6088 ;;		None
  6089 ;; Return value:  Size  Location     Type
  6090 ;;                  1    wreg      void 
  6091 ;; Registers used:
  6092 ;;		wreg, status,2, btemp+1
  6093 ;; Tracked objects:
  6094 ;;		On entry : 0/0
  6095 ;;		On exit  : 0/0
  6096 ;;		Unchanged: 0/0
  6097 ;; Data sizes:     COMMON   BANK0   BANK1   BANK3   BANK2
  6098 ;;      Params:         0       0       0       0       0
  6099 ;;      Locals:         0       0       0       0       0
  6100 ;;      Temps:          4       0       0       0       0
  6101 ;;      Totals:         4       0       0       0       0
  6102 ;;Total ram usage:        4 bytes
  6103 ;; Hardware stack levels used: 1
  6104 ;; This function calls:
  6105 ;;		Nothing
  6106 ;; This function is called by:
  6107 ;;		Interrupt level 1
  6108 ;; This function uses a non-reentrant model
  6109 ;;
  6110                           
  6111                           
  6112                           ;psect for function _timer_isr
  6113  07AA                     _timer_isr:
  6114  07AA                     i1l2389:
  6115  07AA  1D0B               	btfss	11,2	;volatile
  6116  07AB  2FAD               	goto	u338_21
  6117  07AC  2FAE               	goto	u338_20
  6118  07AD                     u338_21:
  6119  07AD  2FB9               	goto	i1l79
  6120  07AE                     u338_20:
  6121  07AE                     i1l2391:
  6122  07AE  30FC               	movlw	252
  6123  07AF  0081               	movwf	1	;volatile
  6124  07B0                     i1l2393:
  6125  07B0  110B               	bcf	11,2	;volatile
  6126  07B1  3001               	movlw	1
  6127  07B2  1683               	bsf	3,5	;RP0=1, select bank1
  6128  07B3  1303               	bcf	3,6	;RP1=0, select bank1
  6129  07B4  07B6               	addwf	_count^(0+128),f
  6130  07B5  1803               	skipnc
  6131  07B6  0AB7               	incf	(_count+1)^(0+128),f
  6132  07B7  3000               	movlw	0
  6133  07B8  07B7               	addwf	(_count+1)^(0+128),f
  6134  07B9                     i1l79:
  6135  07B9  1683               	bsf	3,5	;RP0=1, select bank1
  6136  07BA  1303               	bcf	3,6	;RP1=0, select bank1
  6137  07BB  0837               	movf	(_count+1)^(0+128),w
  6138  07BC  3A80               	xorlw	128
  6139  07BD  00F0               	movwf	??_timer_isr
  6140  07BE  0839               	movf	(_on_time+1)^(0+128),w
  6141  07BF  3A80               	xorlw	128
  6142  07C0  0270               	subwf	??_timer_isr,w
  6143  07C1  1D03               	skipz
  6144  07C2  2FC5               	goto	u339_25
  6145  07C3  0838               	movf	_on_time^(0+128),w
  6146  07C4  0236               	subwf	_count^(0+128),w
  6147  07C5                     u339_25:
  6148  07C5  1C03               	skipc
  6149  07C6  2FC8               	goto	u339_21
  6150  07C7  2FC9               	goto	u339_20
  6151  07C8                     u339_21:
  6152  07C8  2FCC               	goto	i1l2397
  6153  07C9                     u339_20:
  6154  07C9                     i1l2395:
  6155  07C9  1283               	bcf	3,5	;RP0=0, select bank0
  6156  07CA  1303               	bcf	3,6	;RP1=0, select bank0
  6157  07CB  1607               	bsf	7,4	;volatile
  6158  07CC                     i1l2397:
  6159  07CC  1683               	bsf	3,5	;RP0=1, select bank1
  6160  07CD  1303               	bcf	3,6	;RP1=0, select bank1
  6161  07CE  0837               	movf	(_count+1)^(0+128),w
  6162  07CF  3A80               	xorlw	128
  6163  07D0  00FF               	movwf	btemp+1
  6164  07D1  3080               	movlw	128
  6165  07D2  027F               	subwf	btemp+1,w
  6166  07D3  1D03               	skipz
  6167  07D4  2FD7               	goto	u340_25
  6168  07D5  30C8               	movlw	200
  6169  07D6  0236               	subwf	_count^(0+128),w
  6170  07D7                     u340_25:
  6171  07D7  1C03               	skipc
  6172  07D8  2FDA               	goto	u340_21
  6173  07D9  2FDB               	goto	u340_20
  6174  07DA                     u340_21:
  6175  07DA  2FE2               	goto	i1l82
  6176  07DB                     u340_20:
  6177  07DB                     i1l2399:
  6178  07DB  1283               	bcf	3,5	;RP0=0, select bank0
  6179  07DC  1303               	bcf	3,6	;RP1=0, select bank0
  6180  07DD  1207               	bcf	7,4	;volatile
  6181  07DE                     i1l2401:
  6182  07DE  1683               	bsf	3,5	;RP0=1, select bank1
  6183  07DF  1303               	bcf	3,6	;RP1=0, select bank1
  6184  07E0  01B6               	clrf	_count^(0+128)
  6185  07E1  01B7               	clrf	(_count+1)^(0+128)
  6186  07E2                     i1l82:
  6187  07E2  0873               	movf	??_timer_isr+3,w
  6188  07E3  1283               	bcf	3,5	;RP0=0, select bank0
  6189  07E4  1303               	bcf	3,6	;RP1=0, select bank0
  6190  07E5  00FF               	movwf	btemp+1
  6191  07E6  0872               	movf	??_timer_isr+2,w
  6192  07E7  008A               	movwf	10
  6193  07E8  0E71               	swapf	??_timer_isr+1,w
  6194  07E9  0083               	movwf	3
  6195  07EA  0EFE               	swapf	btemp,f
  6196  07EB  0E7E               	swapf	btemp,w
  6197  07EC  0009               	retfie
  6198  07ED                     __end_of_timer_isr:
  6199  007E                     btemp	set	126	;btemp
  6200  007E                     wtemp0	set	126
  6201                           
  6202                           	psect	intentry
  6203  0004                     __pintentry:	
  6204                           ;incstack = 0
  6205                           ; Regs used in _timer_isr: [wreg+status,2+btemp+1]
  6206                           
  6207  0004                     interrupt_function:
  6208  007E                     saved_w	set	btemp
  6209  0004  00FE               	movwf	btemp
  6210  0005  0E03               	swapf	3,w
  6211  0006  00F1               	movwf	??_timer_isr+1
  6212  0007  080A               	movf	10,w
  6213  0008  00F2               	movwf	??_timer_isr+2
  6214  0009  1283               	bcf	3,5	;RP0=0, select bank0
  6215  000A  1303               	bcf	3,6	;RP1=0, select bank0
  6216  000B  087F               	movf	btemp+1,w
  6217  000C  00F3               	movwf	??_timer_isr+3
  6218  000D  120A  118A  2FAA   	ljmp	_timer_isr
  6219                           
  6220                           	psect	config
  6221                           
  6222                           ;Config register CONFIG @ 0x2007
  6223                           ;	Oscillator Selection bits
  6224                           ;	FOSC = HS, HS oscillator
  6225                           ;	Watchdog Timer Enable bit
  6226                           ;	WDTE = OFF, WDT disabled
  6227                           ;	Power-up Timer Enable bit
  6228                           ;	PWRTE = OFF, PWRT disabled
  6229                           ;	Brown-out Reset Enable bit
  6230                           ;	BOREN = ON, BOR enabled
  6231                           ;	Low-Voltage (Single-Supply) In-Circuit Serial Programming Enable bit
  6232                           ;	LVP = OFF, RB3 is digital I/O, HV on MCLR must be used for programming
  6233                           ;	Data EEPROM Memory Code Protection bit
  6234                           ;	CPD = OFF, Data EEPROM code protection off
  6235                           ;	Flash Program Memory Write Enable bits
  6236                           ;	WRT = OFF, Write protection off; all program memory may be written to by EECON control
  6237                           ;	In-Circuit Debugger Mode bit
  6238                           ;	DEBUG = 0x1, unprogrammed default
  6239                           ;	Flash Program Memory Code Protection bit
  6240                           ;	CP = OFF, Code protection off
  6241  2007                     	org	8199
  6242  2007  3F7A               	dw	16250

Data Sizes:
    Strings     95
    Constant    0
    Data        0
    BSS         37
    Persistent  0
    Stack       0

Auto Spaces:
    Space          Size  Autos    Used
    COMMON           14      6      10
    BANK0            80     79      80
    BANK1            80     29      61
    BANK3            96      0       0
    BANK2            96      0       0

Pointer List with Targets:

    lcdstring@s	PTR unsigned char  size(1) Largest target is 18
		 -> STR_7(CODE[13]), STR_6(CODE[16]), STR_5(CODE[18]), STR_4(CODE[12]), 
		 -> STR_3(CODE[8]), STR_2(CODE[10]), STR_1(CODE[18]), 


Critical Paths under _main in COMMON

    _dista_cal->___awmod
    _lcddat->_pulse
    ___flmul->__Umul8_16
    ___awmod->___awdiv
    _lcdcmd->_pulse

Critical Paths under _timer_isr in COMMON

    None.

Critical Paths under _main in BANK0

    _main->_servo
    _dista_cal->___fladd
    _lcdstring->_lcddat
    ___fltol->___fladd
    ___flmul->___xxtofl
    ___fldiv->___flmul
    ___fladd->___fldiv
    ___awmod->___awdiv
    _lcdinit->_lcdcmd

Critical Paths under _timer_isr in BANK0

    None.

Critical Paths under _main in BANK1

    _servo->_dista_cal
    _dista_cal->___fltol
    ___fltol->___fladd

Critical Paths under _timer_isr in BANK1

    None.

Critical Paths under _main in BANK3

    None.

Critical Paths under _timer_isr in BANK3

    None.

Critical Paths under _main in BANK2

    None.

Critical Paths under _timer_isr in BANK2

    None.

Call Graph Tables:

 ---------------------------------------------------------------------------------
 (Depth) Function   	        Calls       Base Space   Used Autos Params    Refs
 ---------------------------------------------------------------------------------
 (0) _main                                                 3     3      0   19967
                                             26 BANK1      3     3      0
                       _intial_inter
                             _lcdcmd
                            _lcdinit
                          _lcdstring
                              _servo
 ---------------------------------------------------------------------------------
 (1) _servo                                                1     1      0   19557
                                             78 BANK0      1     1      0
                            ___flmul
                            ___fltol
                           ___xxtofl
                          _dista_cal
 ---------------------------------------------------------------------------------
 (2) _dista_cal                                            7     7      0   13411
                                             19 BANK1      7     7      0
                            ___awdiv
                            ___awmod
                            ___fladd
                            ___fldiv
                            ___flmul
                            ___fltol
                           ___xxtofl
                             _lcdcmd
                             _lcddat
                          _lcdstring
 ---------------------------------------------------------------------------------
 (3) _lcdstring                                            2     2      0     348
                                              1 BANK0      2     2      0
                             _lcddat
 ---------------------------------------------------------------------------------
 (4) _lcddat                                               1     1      0      31
                                              0 BANK0      1     1      0
                              _pulse
 ---------------------------------------------------------------------------------
 (3) ___xxtofl                                            14    10      4    1016
                                              0 BANK0     14    10      4
 ---------------------------------------------------------------------------------
 (3) ___fltol                                             11     7      4     877
                                              8 BANK1     11     7      4
                            ___fladd (ARG)
                            ___fldiv (ARG)
                            ___flmul (ARG)
                           ___xxtofl (ARG)
 ---------------------------------------------------------------------------------
 (3) ___flmul                                             26    18      8    4253
                                             14 BANK0     26    18      8
                          __Umul8_16
                           ___xxtofl (ARG)
 ---------------------------------------------------------------------------------
 (4) __Umul8_16                                            9     7      2     980
                                              4 COMMON     2     0      2
                                              0 BANK0      7     7      0
 ---------------------------------------------------------------------------------
 (3) ___fldiv                                             26    18      8    1273
                                             40 BANK0     26    18      8
                            ___flmul (ARG)
                           ___xxtofl (ARG)
 ---------------------------------------------------------------------------------
 (3) ___fladd                                             20    12      8    3262
                                             66 BANK0     12     4      8
                                              0 BANK1      8     8      0
                            ___fldiv (ARG)
                            ___flmul (ARG)
                           ___xxtofl (ARG)
 ---------------------------------------------------------------------------------
 (3) ___awmod                                              7     3      4    1056
                                              5 COMMON     1     1      0
                                              8 BANK0      6     2      4
                            ___awdiv (ARG)
 ---------------------------------------------------------------------------------
 (3) ___awdiv                                              9     5      4    1165
                                              4 COMMON     1     1      0
                                              0 BANK0      8     4      4
 ---------------------------------------------------------------------------------
 (1) _lcdinit                                              0     0      0      31
                             _lcdcmd
 ---------------------------------------------------------------------------------
 (3) _lcdcmd                                               1     1      0      31
                                              0 BANK0      1     1      0
                              _pulse
 ---------------------------------------------------------------------------------
 (5) _pulse                                                2     2      0       0
                                              4 COMMON     2     2      0
 ---------------------------------------------------------------------------------
 (1) _intial_inter                                         0     0      0       0
 ---------------------------------------------------------------------------------
 Estimated maximum stack depth 5
 ---------------------------------------------------------------------------------
 (Depth) Function   	        Calls       Base Space   Used Autos Params    Refs
 ---------------------------------------------------------------------------------
 (6) _timer_isr                                            4     4      0       0
                                              0 COMMON     4     4      0
 ---------------------------------------------------------------------------------
 Estimated maximum stack depth 6
 ---------------------------------------------------------------------------------

 Call Graph Graphs:

 _main (ROOT)
   _intial_inter
   _lcdcmd
     _pulse
   _lcdinit
     _lcdcmd
   _lcdstring
     _lcddat
       _pulse
   _servo
     ___flmul
       __Umul8_16
       ___xxtofl (ARG)
     ___fltol
       ___fladd (ARG)
         ___fldiv (ARG)
           ___flmul (ARG)
           ___xxtofl (ARG)
         ___flmul (ARG)
         ___xxtofl (ARG)
       ___fldiv (ARG)
       ___flmul (ARG)
       ___xxtofl (ARG)
     ___xxtofl
     _dista_cal
       ___awdiv
       ___awmod
         ___awdiv (ARG)
       ___fladd
       ___fldiv
       ___flmul
       ___fltol
       ___xxtofl
       _lcdcmd
       _lcddat
       _lcdstring

 _timer_isr (ROOT)

 Address spaces:
Name               Size   Autos  Total    Cost      Usage
BITCOMMON            E      0       0       0        0.0%
EEDATA             100      0       0       0        0.0%
NULL                 0      0       0       0        0.0%
CODE                 0      0       0       0        0.0%
COMMON               E      6       A       1       71.4%
BITSFR0              0      0       0       1        0.0%
SFR0                 0      0       0       1        0.0%
BITSFR1              0      0       0       2        0.0%
SFR1                 0      0       0       2        0.0%
STACK                0      0       0       2        0.0%
ABS                  0      0      97       3        0.0%
BITBANK0            50      0       0       4        0.0%
BITSFR3              0      0       0       4        0.0%
SFR3                 0      0       0       4        0.0%
BANK0               50     4F      50       5      100.0%
BITSFR2              0      0       0       5        0.0%
SFR2                 0      0       0       5        0.0%
BITBANK1            50      0       0       6        0.0%
BANK1               50     1D      3D       7       76.2%
BITBANK3            60      0       0       8        0.0%
BANK3               60      0       0       9        0.0%
BITBANK2            60      0       0      10        0.0%
BANK2               60      0       0      11        0.0%
DATA                 0      0      97      12        0.0%


Microchip Technology PIC Macro Assembler V2.32 build 20210201212658 
Symbol Table                                                                                   Tue Jun 28 12:30:42 2022

           ___fldiv@aexp 0061             ___fldiv@bexp 0060                        _f 00BD  
                      _i 00AA                        pc 0002             ___fldiv@sign 0059  
                     _A1 00A8                       _A2 00A6                       _A3 00A4  
                     l91 177E                       l85 17B3                       l94 178A  
                     l88 07FC                       _d1 00BC                       _d2 00BB  
                     _d3 00BA                       _d4 00B2                       _d5 00B0  
                     _d6 00AE             ___awdiv@sign 0025                       _t1 0079  
                     _t2 0078                       _t3 0077                       _t4 0076  
                     _t5 006F                       fsr 0004      __Umul8_16@word_mpld 0024  
                    l100 17D6                      l123 1797                      l131 0D49  
                    l134 0FFF                      l126 0D40                      l128 0D44  
                    l129 0D45                      l145 0B53                      l405 0862  
                    l432 0998                      l425 09AD                      l610 0D14  
                    l435 09AD                      l532 009A                      l612 0D24  
                    l604 0CA2                      l392 0931                      l536 019B  
                    l640 06E1                      l553 02AA                      l545 038C  
                    l538 0166                      l634 0659                      l563 02F8  
                    l628 06ED                      l557 02D6                      l574 037C  
                    l566 0356                      l590 0D30                      l575 038C  
                    l647 17ED                      l672 0712                      l649 17FF  
                    l674 07A9                      l588 0BB0                      l685 0773  
                    l686 077F                      l678 0757                      _GIE 005F  
                    _RB1 0031                      _RC0 0038                      _RB2 0032  
                    _RC1 0039                      _RC4 003C                      fsr0 0004  
                    indf 0000             ___awmod@sign 002D             ___flmul@aexp 003C  
           ___flmul@bexp 0041             ___flmul@sign 003B             ___flmul@temp 0046  
           ___flmul@prod 0042             ___fltol@exp1 00D2                     l2011 0C09  
                   l2003 0BDF                     l2021 0C27                     l2013 0C0B  
                   l2005 0BF1                     l2015 0C10                     l2023 0C30  
                   l2031 0C55                     l2007 0BF9                     l2041 0C72  
                   l2033 0C5B                     l2025 0C42                     l2017 0C22  
                   l2009 0C01                     l3001 0FF1                     l3011 17AD  
                   l3003 1798                     l2051 0C87                     l2043 0C73  
                   l2035 0C63                     l2027 0C43                     l2019 0C26  
                   l1501 178E                     l3005 179B                     l2061 0CAC  
                   l2053 0C8B                     l2045 0C7C                     l2037 0C65  
                   l2029 0C51                     l3021 09BC                     l3013 09AE  
                   l1503 1794                     l3007 17A1                     l2071 0CEA  
                   l2063 0CBA                     l2055 0C9F                     l2039 0C6E  
                   l2047 0C82                     l3023 0A0B                     l3015 09AF  
                   l3031 0A76                     l1505 1795                     l3009 17A7  
                   l2081 0D1A                     l2073 0CF8                     l2065 0CBE  
                   l2049 0C86                     l3041 0AE2                     l3033 0A86  
                   l3025 0A1C                     l3017 09B4                     l1507 1796  
                   l2083 0D1E                     l2075 0D07                     l2067 0CD7  
                   l2059 0CA7                     l3043 0AF3                     l3035 0A8B  
                   l3027 0A6B                     l3051 0863                     l2501 08F6  
                   l1701 0833                     l2085 0D20                     l2077 0D0B  
                   l2069 0CDD                     l3045 0B42                     l3029 0A6C  
                   l3061 086E                     l3053 0868                     l2511 0916  
                   l2503 08FA                     l1703 0837                     l1711 0854  
                   l2079 0D13                     l3047 0B43                     l3039 0A93  
                   l3071 0884                     l3063 086F                     l3055 086B  
                   l2441 07F0                     l2513 091D                     l2505 08FE  
                   l1713 0859                     l1705 0841                     l2601 0092  
                   l3049 0B4D                     l3081 08AB                     l3073 088A  
                   l3065 0873                     l3057 086C                     l2443 07F9  
                   l2507 090F                     l2515 0923                     l1715 085E  
                   l1707 0847                     l2611 00BC                     l2603 00A0  
                   l2451 17DA                     l2531 095D                     l2523 0932  
                   l3083 08B1                     l3075 0890                     l3067 0878  
                   l3059 086D                     l2517 0928                     l2509 0915  
                   l1709 084E                     l2701 02CF                     l2621 00E4  
                   l2613 00C4                     l2605 00A4                     l2461 17FB  
                   l2453 17DC                     l2533 095E                     l2525 093F  
                   l2445 1782                     l3085 08C0                     l3077 089F  
                   l3069 087E                     l2439 07ED                     l2519 092D  
                   l2711 02E4                     l2703 02D5                     l2631 010C  
                   l2623 00EC                     l2615 00CC                     l2607 00AC  
                   l2455 17E3                     l2535 0966                     l2447 1784  
                   l2471 17B7                     l3079 08A5                     l2465 1776  
                   l2481 08CC                     l1681 0808                     l2721 02F5  
                   l2705 02DA                     l2713 02E6                     l2641 0142  
                   l2633 0114                     l2625 00F4                     l2617 00D4  
                   l2609 00B4                     l2561 0032                     l2457 17E7  
                   l2801 0417                     l2553 098D                     l2545 0974  
                   l2537 0968                     l2529 0948                     l2449 1785  
                   l2473 17B8                     l1499 178B                     l2467 1778  
                   l2491 08E0                     l2483 08D0                     l1691 081A  
                   l1683 080B                     l2731 0314                     l2707 02DD  
                   l2715 02EA                     l2651 017E                     l2643 016A  
                   l2635 011C                     l2627 00FC                     l2619 00DC  
                   l2571 004B                     l2563 003C                     l2459 17F6  
                   l2811 04B4                     l2803 0434                     l2555 099D  
                   l2539 096C                     l2547 0986                     l2475 17C4  
                   l2469 1779                     l2493 08E4                     l2485 08D5  
                   l1693 081F                     l1685 080F                     l2741 036D  
                   l2733 034E                     l2725 02FD                     l2717 02EB  
                   l2709 02DF                     l2653 018D                     l2645 0177  
                   l2629 0104                     l2637 0124                     l2581 0067  
                   l2573 0053                     l2565 0040                     l2821 0517  
                   l2813 04BD                     l2805 0450                     l2557 09A2  
                   l2901 071A                     l2477 17CA                     l2495 08E6  
                   l2487 08D7                     l2479 08C9                     l1695 0825  
                   l1687 0814                     l2751 038B                     l2743 036E  
                   l2735 035B                     l2727 0302                     l2719 02EF  
                   l2671 01D9                     l2663 01AD                     l2647 0179  
                   l2655 0193                     l2639 0125                     l2591 007D  
                   l2583 006D                     l2575 0054                     l2567 0041  
                   l2559 0027                     l1951 0B5B                     l2831 05B7  
                   l2823 0530                     l2815 04CD                     l2807 047C  
                   l2911 073C                     l2497 08EC                     l2489 08DB  
                   l1697 0828                     l1689 0816                     l2745 0372  
                   l2737 0360                     l2729 0310                     l2673 01DB  
                   l2665 01C4                     l2657 019F                     l2681 01F6  
                   l2649 017D                     l2593 0082                     l2585 006E  
                   l2569 0046                     l2577 0056                     l1961 0B70  
                   l1953 0B61                     l2841 0625                     l2833 05DD  
                   l2825 054D                     l2817 04EA                     l2809 0498  
                   l2761 039F                     l2753 038D                     l2921 076D  
                   l2913 0740                     l2905 0723                     l2499 08EF  
                   l1699 082F                     l2747 0374                     l2739 0368  
                   l2683 020C                     l2691 029C                     l2675 01DF  
                   l2667 01C8                     l2659 01A4                     l2595 0087  
                   l2587 0078                     l2579 005E                     l1971 0B88  
                   l1963 0B78                     l1955 0B65                     l2851 063D  
                   l2843 0629                     l2835 0605                     l2827 057A  
                   l2819 04FA                     l2771 03BB                     l2763 03A4  
                   l2755 0394                     l2931 07A0                     l2923 0777  
                   l2915 074E                     l2907 0728                     l2749 0387  
                   l2693 02B2                     l2685 027E                     l2677 01E0  
                   l2669 01CC                     l2597 008F                     l2589 007C  
                   l1981 0B9D                     l1973 0B8E                     l1965 0B79  
                   l1957 0B66                     l1949 0B54                     l2861 065E  
                   l2853 063E                     l2845 062A                     l2837 060E  
                   l2829 058A                     l2781 03D0                     l2773 03C0  
                   l2765 03A9                     l2757 039A                     l2933 07A1  
                   l2925 0781                     l2917 075E                     l2909 0735  
                   l2941 0D36                     l2695 02B7                     l2687 0288  
                   l2679 01EF                     l2599 0090                     l1991 0BC4  
                   l1983 0BA5                     l1975 0B92                     l1959 0B6B  
                   l1967 0B7B                     l2863 0663                     l2871 0694  
                   l2855 0642                     l2847 0633                     l2839 061C  
                   l2791 03EC                     l2783 03D5                     l2775 03C6  
                   l2767 03B1                     l2759 039E                     l2927 0797  
                   l2919 0769                     l2951 0E20                     l2943 0D3D  
                   l2689 028D                     l1993 0BC8                     l1985 0BA6  
                   l1977 0B93                     l1969 0B83                     l2881 06C7  
                   l2873 06A1                     l2865 0671                     l2857 0656  
                   l2849 0639                     l2793 03F1                     l2785 03DD  
                   l2777 03CA                     l2769 03B3                     l2929 079C  
                   l2961 0ECD                     l2953 0E2D                     l2945 0D4A  
                   l2937 0D31                     l2699 02C0                     l1979 0B98  
                   l1987 0BA8                     l2883 06D5                     l2875 06AC  
                   l2867 0675                     l2787 03DF                     l2779 03CB  
                   l2971 0F4A                     l2963 0EDB                     l2955 0E3C  
                   l2947 0D54                     l2939 0D35                     l1989 0BB8  
                   l1997 0BD1                     l2885 06D9                     l2877 06BB  
                   l2869 068E                     l2797 03FA                     l2789 03E7  
                   l2893 06F1                     l2981 0FA6                     l2973 0F6D  
                   l2965 0EE1                     l2957 0E40                     l2949 0DD1  
                   l1999 0BD6                     l2887 06DA                     l2879 06C5  
                   l2799 040A                     l2895 06F6                     l2991 0FCD  
                   l2983 0FAC                     l2975 0F71                     l2967 0F04  
                   l2959 0EC7                     l2889 06E5                     l2897 06FA  
                   l2985 0FB2                     l2977 0F77                     l2969 0F27  
                   l2993 0FDC                     l2899 070A                     l2995 0FDF  
                   l2987 0FBB                     l2979 0F98                     l2997 0FE5  
                   l2989 0FC4                     l2999 0FEB                     STR_1 1006  
                   STR_2 1053                     STR_3 105D                     STR_4 1047  
                   STR_5 1018                     STR_6 102A                     STR_7 103A  
                   u4000 02F5                     u4001 02F4                     u4010 02FC  
                   u4011 02FB                     u4100 038B                     u4020 0302  
                   u2500 0B65                     u4101 038A                     u4021 0301  
                   u2501 0B64                     u4030 0314                     u2510 0B6B  
                   u4110 039E                     u4031 0313                     u2511 0B6A  
                   u4111 039D                     u4040 0331                     u2520 0B70  
                   u4120 03A4                     u2521 0B6F                     u4201 045E  
                   u4121 03A3                     u4050 034E                     u2610 0C26  
                   u2530 0B92                     u3410 17E7                     u4202 0465  
                   u4130 03A9                     u4051 034D                     u2611 0C25  
                   u2531 0B91                     u3411 17E6                     u4211 048A  
                   u4203 046C                     u4131 03A8                     u1900 0841  
                   u4060 035B                     u2700 0C8B                     u2540 0B98  
                   u4300 05C3                     u4212 0491                     u4140 03CA  
                   u1901 0840                     u4061 035A                     u4045 032C  
                   u2701 0C8A                     u2605 0C1B                     u2541 0B97  
                   u4221 04A6                     u4213 0498                     u4141 03C9  
                   u3510 090F                     u4070 0360                     u2710 0C9F  
                   u2630 0C42                     u2550 0B9D                     u3430 17FB  
                   u4222 04AD                     u4150 03D0                     u3511 090E  
                   u4071 035F                     u2711 0C9E                     u2631 0C41  
                   u2551 0B9C                     u3431 17FA                     u4311 05CF  
                   u4223 04B4                     u4151 03CF                     u1920 0854  
                   u4080 036D                     u2720 0CA6                     u2640 0C5B  
                   u2560 0BB8                     u4400 0656                     u4320 05EB  
                   u4312 05D6                     u4160 03D5                     u3600 0985  
                   u3440 17D6                     u3505 08FF                     u1921 0853  
                   u1905 083D                     u4081 036C                     u2721 0CA5  
                   u2641 0C5A                     u2625 0C29                     u2561 0BB7  
                   u3425 17EE                     u4401 0655                     u4313 05DD  
                   u4305 05BE                     u4241 04DC                     u4161 03D4  
                   u3601 0984                     u3441 17D5                     u3530 0923  
                   u3450 08D0                     u1930 0859                     u1850 080F  
                   u4090 0372                     u2730 0CAC                     u2650 0C63  
                   u2570 0BD6                     u4410 065D                     u4242 04E3  
                   u4170 03EC                     u3610 098C                     u3531 0922  
                   u3515 090B                     u3451 08CF                     u1931 0858  
                   u1915 0848                     u1851 080E                     u4091 0371  
                   u2731 0CAB                     u2651 0C62                     u2635 0C3E  
                   u2571 0BD5                     u4411 065C                     u4331 05F7  
                   u4251 0509                     u4243 04EA                     u4235 04B6  
                   u4171 03EB                     u3611 098B                     u3540 0928  
                   u3460 08DB                     u1860 081A                     u3700 0082  
                   u2740 0CBE                     u2580 0C10                     u4420 0663  
                   u4332 05FE                     u4252 0510                     u4180 03F1  
                   u4500 071A                     u3541 0927                     u3525 0917  
                   u3461 08DA                     u1861 0819                     u3701 0081  
                   u2741 0CBD                     u2581 0C0F                     u4421 0662  
                   u4333 0605                     u4325 05E6                     u4253 0517  
                   u4181 03F0                     u4501 0719                     u3470 08EC  
                   u1870 0825                     u3710 0087                     u2750 0CCD  
                   u2670 0C72                     u4430 0675                     u3630 099D  
                   u3550 093F                     u3471 08EB                     u1871 0824  
                   u3711 0086                     u2671 0C71                     u4431 0674  
                   u4271 053F                     u4191 0442                     u3631 099C  
                   u3551 093E                     u3800 019B                     u3720 00A0  
                   u2760 0CEA                     u4440 0684                     u4360 0629  
                   u4272 0546                     u4192 0449                     u3640 09A2  
                   u3560 0956                     u4600 079C                     u4520 073B  
                   u3801 019A                     u3721 009F                     u2761 0CE9  
                   u2665 0C67                     u4361 0628                     u4345 0607  
                   u4281 056C                     u4273 054D                     u4265 0519  
                   u4193 0450                     u3641 09A1                     u3625 098F  
                   u4601 079B                     u4521 073A                     u3490 08FE  
                   u1890 0837                     u3810 019F                     u3730 00A4  
                   u3650 0040                     u2770 0D07                     u2690 0C86  
                   u4450 06A1                     u4282 0573                     u3570 096C  
                   u4610 07A0                     u3491 08FD                     u1891 0836  
                   u3811 019E                     u3731 00A3                     u3651 003F  
                   u2771 0D06                     u2755 0CC8                     u2691 0C85  
                   u2595 0C12                     u4451 06A0                     u4355 061E  
                   u4291 0599                     u4283 057A                     u3571 096B  
                   u4611 079F                     u4515 072D                     _PEIE 005E  
                   u3900 025D                     u3820 01A4                     u3740 0142  
                   u3660 0046                     u2780 0D1E                     u4460 06BB  
                   u4380 063D                     u4292 05A0                     u3580 0973  
                   u4540 075D                     u4620 0D44                     u3485 08F0  
                   u1885 0829                     u3901 025E                     u3821 01A3  
                   u3741 0141                     u3661 0045                     u2781 0D1D  
                   u2765 0CE6                     u2685 0C75                     u4461 06BA  
                   u4445 067F                     u4381 063C                     u4293 05A7  
                   u3581 0972                     u3565 0951                     u4541 075C  
                   u4621 0D43                     u3910 028D                     u3902 0263  
                   u3750 014D                     u3670 004B                     u4470 06D9  
                   u4390 0642                     u4630 0D49                     u3911 028C  
                   u3903 0264                     u3831 01B6                     u3751 014B  
                   u3671 004A                     u2775 0D03                     u4471 06D8  
                   u4455 069D                     u4391 0641                     u4375 062C  
                   u4535 074F                     u4631 0D48                     u3920 02B2  
                   u3840 01C8                     u3832 01BD                     u3760 014E  
                   u3680 006D                     u4560 076D                     u4480 06F6  
                   u4640 0E2D                     u3921 02B1                     u3841 01C7  
                   u3833 01C4                     u3745 013E                     u3681 006C  
                   u4465 06B7                     u4561 076C                     u4481 06F5  
                   u4641 0E2C                     u3930 02B7                     u3850 01CC  
                   u3770 016A                     u3690 007C                     u4570 0773  
                   u4490 06FA                     u4650 0E3C                     u3931 02B6  
                   u3851 01CB                     u3771 0169                     u3691 007B  
                   u3595 0975                     u4571 0772                     u4555 0762  
                   u4491 06F9                     u4651 0E3B                     u4707 0898  
                   u3860 01DF                     u3780 017D                     u4580 0777  
                   u4660 09BB                     u3861 01DE                     u3781 017C  
                   u4581 0776                     u4645 0E29                     u4661 09BA  
                   u4717 08B9                     u3950 02D5                     u4590 078C  
                   u4670 0A85                     u3951 02D4                     u4655 0E38  
                   u4727 0D3A                     u4671 0A84                     u3960 02DA  
                   u3880 020C                     u4680 0A92                     u3961 02D9  
                   u3945 02C4                     u3881 020B                     u4737 0ED5  
                   u4681 0A91                     i1l82 07E2                     u3970 02E4  
                   u4690 0B53                     u3971 02E3                     u3891 023B  
                   u3883 0208                     u3875 01E4                     u3795 0182  
                   u4595 0787                     u4747 0FA0                     u4691 0B52  
                   u4675 0A81                     u3980 02EA                     u3892 023E  
                   u3981 02E9                     u3893 0245                     u4757 0FD5  
                   u3990 02EF                     u3894 0248                     i1l79 07B9  
                   u3991 02EE                     u3895 024F                     u4767 0FF9  
                   u3896 0252                     u4777 07F4                     _TMR0 0001  
                   _main 0863                     btemp 007E                     start 0010  
        ___fldiv@new_exp 005A            ___fltol@sign1 00D1          __end_of___fladd 038D  
                  ?_main 0070          __end_of___fldiv 0D31          __end_of___awdiv 0932  
        __end_of___awmod 0863          __end_of___flmul 06EE          __end_of___fltol 09AE  
        ___awdiv@divisor 0020                    _T1CON 0010          ___awdiv@counter 0024  
                  _TMR1H 000F                    _TMR1L 000E                    _PORTD 0008  
                  _TRISD 0088          __end_of_lcdinit 17B4                    _angle 00AC  
                  _count 00B6                    _servo 09AE                    _pulse 07ED  
                  pclath 000A                    status 0003                    wtemp0 007E  
        __initialization 0013             __end_of_main 08C9                   ??_main 00DA  
       ___awdiv@dividend 0022                   ?_servo 0070                   ?_pulse 0070  
                 i1l2401 07DE                   i1l2391 07AE                   i1l2393 07B0  
                 i1l2395 07C9                   i1l2397 07CC                   i1l2389 07AA  
                 i1l2399 07DB                   u340_20 07DB                   u340_21 07DA  
                 u340_25 07D7                   u338_20 07AE                   u338_21 07AD  
                 u339_20 07C9                   u339_21 07C8                   u339_25 07C5  
                 _TMR0IE 005D                   _TMR0IF 005A                   _TMR1ON 0080  
                 _TRISB1 0431                   _TRISC0 0438                   _TRISB2 0432  
                 _TRISC1 0439                   _TRISC4 043C         __end_of___xxtofl 07AA  
              ??___fladd 00C0                ??___fldiv 0050                ??___awdiv 0074  
              ??___awmod 0075                ??___flmul 0036                ??___fltol 00CC  
                 _lcddat 177F                   _lcdcmd 1773         ___awdiv@quotient 0026  
        ___awmod@divisor 0028          ___awmod@counter 002C                ??_lcdinit 0076  
     __size_of__Umul8_16 0029                   saved_w 007E            ?_intial_inter 0070  
           ___xxtofl@arg 002A             ___xxtofl@exp 0029             ___xxtofl@val 0020  
__end_of__initialization 0023               ___fltol@f1 00C8           __pcstackCOMMON 0070  
          __end_of_servo 0B54            __end_of_pulse 07FD           ??_intial_inter 0074  
     __size_of_dista_cal 02CF                  ??_servo 006E                  ??_pulse 0074  
             __pbssBANK0 006F               __pbssBANK1 00A0       __size_of_lcdstring 0023  
      __end_of__Umul8_16 1800               __pmaintext 0863               __pintentry 0004  
                ?_lcddat 0070                  ?_lcdcmd 0070                ?___xxtofl 0020  
     __size_of_timer_isr 0043               __stringtab 1000        __end_of_dista_cal 1000  
                ___fladd 0027                  ___fldiv 0B54                  ___awdiv 08C9  
                ___awmod 0808                  ___flmul 038D                  ___fltol 0932  
        __size_of_lcddat 000C          __size_of_lcdcmd 000C        __end_of_lcdstring 17D7  
                __ptext1 09AE                  __ptext2 0D31                  __ptext3 17B4  
                __ptext4 177F                  __ptext5 06EE                  __ptext6 0932  
                __ptext7 038D                  __ptext8 17D7                  __ptext9 0B54  
                _lcdinit 1798                  _counter 00A2               ??___xxtofl 0024  
       ___awmod@dividend 002A                  _on_time 00B8                  clrloop0 0801  
   end_of_initialization 0023        __end_of_timer_isr 07ED     __end_of_intial_inter 1798  
             _time_taken 00BE              ___fladd@grs 006D            ___xxtofl@sign 0028  
            ___fldiv@grs 005C              ___fldiv@rem 0055              ___flmul@grs 003D  
             dista_cal@n 00D6               dista_cal@p 00D8           __end_of_lcddat 178B  
         __end_of_lcdcmd 177F      start_initialization 0013               lcdstring@s 0022  
              __Umul8_16 17D7                 ??_lcddat 0076                 ??_lcdcmd 0076  
              ___fladd@a 0066                ___fladd@b 0062                ___fldiv@a 0048  
              ___fldiv@b 004C                ___flmul@a 0032                ___flmul@b 002E  
            __pbssCOMMON 0076                ___latbits 0002            __pcstackBANK0 0020  
          __pcstackBANK1 00C0        __size_of___xxtofl 00BC    __size_of_intial_inter 000D  
               ?___fladd 0062                 ?___fldiv 0048                 ?___awdiv 0020  
               ?___awmod 0028                 ?___flmul 002E                 ?___fltol 00C8  
             ?__Umul8_16 0074                _dista_cal 0D31                __pstrings 1000  
               ?_lcdinit 0070                _lcdstring 17B4             _intial_inter 178B  
         __size_of_servo 01A6           __size_of_pulse 0010        interrupt_function 0004  
              clear_ram0 0800                _timer_isr 07AA                _pot_value 00B4  
             ?_dista_cal 0070              __stringbase 1005                lcddat@cmd 0020  
              lcdcmd@cmd 0020               ?_lcdstring 0070              ??__Umul8_16 0020  
             ?_timer_isr 0070         __size_of___fladd 0366         __size_of___fldiv 01DD  
       __size_of___awdiv 0069         __size_of___awmod 005B         __size_of___flmul 0361  
       __size_of___fltol 007C       __end_of__stringtab 1006         __size_of_lcdinit 001C  
               ___xxtofl 06EE                 __ptext10 0027                 __ptext11 0808  
               __ptext12 08C9                 __ptext13 1798                 __ptext14 1773  
               __ptext15 07ED                 __ptext16 178B                 __ptext17 07AA  
               _distance 00A0            __size_of_main 0066              ??_dista_cal 00D3  
            ??_lcdstring 0021                 intlevel1 0000                stringcode 1000  
            ??_timer_isr 0070   __Umul8_16@multiplicand 0074               _OPTION_REG 0081  
               stringdir 1000                 stringtab 1000            ___fladd@signs 006A  
           ___fladd@aexp 006B             ___fladd@bexp 006C     __Umul8_16@multiplier 0026  
      __Umul8_16@product 0022  
